
/home/guodl/Desktop/ysyx/ysyx-workbench/ics2022/am-kernels/tests/cpu-tests/build/fact-riscv64-nemu.elf:     file format elf64-littleriscv


Disassembly of section .text:

0000000080000000 <_start>:
    80000000:	00000413          	li	s0,0
    80000004:	00009117          	auipc	sp,0x9
    80000008:	ffc10113          	addi	sp,sp,-4 # 80009000 <_end>
    8000000c:	0f0000ef          	jal	ra,800000fc <_trm_init>

0000000080000010 <check>:
    80000010:	00050463          	beqz	a0,80000018 <check+0x8>
    80000014:	00008067          	ret
    80000018:	ff010113          	addi	sp,sp,-16
    8000001c:	00100513          	li	a0,1
    80000020:	00113423          	sd	ra,8(sp)
    80000024:	0cc000ef          	jal	ra,800000f0 <halt>

0000000080000028 <main>:
    80000028:	fd010113          	addi	sp,sp,-48
    8000002c:	01213823          	sd	s2,16(sp)
    80000030:	00000917          	auipc	s2,0x0
    80000034:	0f890913          	addi	s2,s2,248 # 80000128 <ans>
    80000038:	00092783          	lw	a5,0(s2)
    8000003c:	01313423          	sd	s3,8(sp)
    80000040:	00100513          	li	a0,1
    80000044:	00000997          	auipc	s3,0x0
    80000048:	11c98993          	addi	s3,s3,284 # 80000160 <f>
    8000004c:	00913c23          	sd	s1,24(sp)
    80000050:	00a9a023          	sw	a0,0(s3)
    80000054:	00000493          	li	s1,0
    80000058:	40a78533          	sub	a0,a5,a0
    8000005c:	01413023          	sd	s4,0(sp)
    80000060:	0014849b          	addiw	s1,s1,1
    80000064:	00d00a13          	li	s4,13
    80000068:	00153513          	seqz	a0,a0
    8000006c:	02813023          	sd	s0,32(sp)
    80000070:	02113423          	sd	ra,40(sp)
    80000074:	00100413          	li	s0,1
    80000078:	f99ff0ef          	jal	ra,80000010 <check>
    8000007c:	05448063          	beq	s1,s4,800000bc <main+0x94>
    80000080:	06848063          	beq	s1,s0,800000e0 <main+0xb8>
    80000084:	00048793          	mv	a5,s1
    80000088:	00100513          	li	a0,1
    8000008c:	02a7853b          	mulw	a0,a5,a0
    80000090:	fff7879b          	addiw	a5,a5,-1
    80000094:	fe879ce3          	bne	a5,s0,8000008c <main+0x64>
    80000098:	00498993          	addi	s3,s3,4
    8000009c:	00490913          	addi	s2,s2,4
    800000a0:	00092783          	lw	a5,0(s2)
    800000a4:	00a9a023          	sw	a0,0(s3)
    800000a8:	0014849b          	addiw	s1,s1,1
    800000ac:	40a78533          	sub	a0,a5,a0
    800000b0:	00153513          	seqz	a0,a0
    800000b4:	f5dff0ef          	jal	ra,80000010 <check>
    800000b8:	fd4494e3          	bne	s1,s4,80000080 <main+0x58>
    800000bc:	02813083          	ld	ra,40(sp)
    800000c0:	02013403          	ld	s0,32(sp)
    800000c4:	01813483          	ld	s1,24(sp)
    800000c8:	01013903          	ld	s2,16(sp)
    800000cc:	00813983          	ld	s3,8(sp)
    800000d0:	00013a03          	ld	s4,0(sp)
    800000d4:	00000513          	li	a0,0
    800000d8:	03010113          	addi	sp,sp,48
    800000dc:	00008067          	ret
    800000e0:	00100513          	li	a0,1
    800000e4:	00498993          	addi	s3,s3,4
    800000e8:	00490913          	addi	s2,s2,4
    800000ec:	fb5ff06f          	j	800000a0 <main+0x78>

00000000800000f0 <halt>:
    800000f0:	00050513          	mv	a0,a0
    800000f4:	00100073          	ebreak
    800000f8:	0000006f          	j	800000f8 <halt+0x8>

00000000800000fc <_trm_init>:
    800000fc:	ff010113          	addi	sp,sp,-16
    80000100:	00000517          	auipc	a0,0x0
    80000104:	02050513          	addi	a0,a0,32 # 80000120 <mainargs>
    80000108:	00113423          	sd	ra,8(sp)
    8000010c:	f1dff0ef          	jal	ra,80000028 <main>
    80000110:	00050513          	mv	a0,a0
    80000114:	00100073          	ebreak
    80000118:	0000006f          	j	80000118 <_trm_init+0x1c>
