
/home/guodl/Desktop/ysyx/ysyx-workbench/ics2022/am-kernels/tests/cpu-tests/build/hello-str-riscv64-nemu.elf:     file format elf64-littleriscv


Disassembly of section .text:

0000000080000000 <_start>:
    80000000:	00000413          	li	s0,0
    80000004:	00009117          	auipc	sp,0x9
    80000008:	ffc10113          	addi	sp,sp,-4 # 80009000 <_end>
    8000000c:	128000ef          	jal	ra,80000134 <_trm_init>

0000000080000010 <check>:
    80000010:	00050463          	beqz	a0,80000018 <check+0x8>
    80000014:	00008067          	ret
    80000018:	ff010113          	addi	sp,sp,-16
    8000001c:	00100513          	li	a0,1
    80000020:	00113423          	sd	ra,8(sp)
    80000024:	104000ef          	jal	ra,80000128 <halt>

0000000080000028 <main>:
    80000028:	ff010113          	addi	sp,sp,-16
    8000002c:	00000617          	auipc	a2,0x0
    80000030:	67460613          	addi	a2,a2,1652 # 800006a0 <_etext>
    80000034:	00000597          	auipc	a1,0x0
    80000038:	67c58593          	addi	a1,a1,1660 # 800006b0 <_etext+0x10>
    8000003c:	00000517          	auipc	a0,0x0
    80000040:	6cc50513          	addi	a0,a0,1740 # 80000708 <buf>
    80000044:	00113423          	sd	ra,8(sp)
    80000048:	4ac000ef          	jal	ra,800004f4 <sprintf>
    8000004c:	00000597          	auipc	a1,0x0
    80000050:	65458593          	addi	a1,a1,1620 # 800006a0 <_etext>
    80000054:	00000517          	auipc	a0,0x0
    80000058:	6b450513          	addi	a0,a0,1716 # 80000708 <buf>
    8000005c:	120000ef          	jal	ra,8000017c <strcmp>
    80000060:	00153513          	seqz	a0,a0
    80000064:	fadff0ef          	jal	ra,80000010 <check>
    80000068:	00000597          	auipc	a1,0x0
    8000006c:	6a058593          	addi	a1,a1,1696 # 80000708 <buf>
    80000070:	00000517          	auipc	a0,0x0
    80000074:	64050513          	addi	a0,a0,1600 # 800006b0 <_etext+0x10>
    80000078:	304000ef          	jal	ra,8000037c <printf>
    8000007c:	00200713          	li	a4,2
    80000080:	00100693          	li	a3,1
    80000084:	00100613          	li	a2,1
    80000088:	00000597          	auipc	a1,0x0
    8000008c:	63058593          	addi	a1,a1,1584 # 800006b8 <_etext+0x18>
    80000090:	00000517          	auipc	a0,0x0
    80000094:	67850513          	addi	a0,a0,1656 # 80000708 <buf>
    80000098:	45c000ef          	jal	ra,800004f4 <sprintf>
    8000009c:	00000597          	auipc	a1,0x0
    800000a0:	66c58593          	addi	a1,a1,1644 # 80000708 <buf>
    800000a4:	00000517          	auipc	a0,0x0
    800000a8:	60c50513          	addi	a0,a0,1548 # 800006b0 <_etext+0x10>
    800000ac:	2d0000ef          	jal	ra,8000037c <printf>
    800000b0:	00000597          	auipc	a1,0x0
    800000b4:	61858593          	addi	a1,a1,1560 # 800006c8 <_etext+0x28>
    800000b8:	00000517          	auipc	a0,0x0
    800000bc:	65050513          	addi	a0,a0,1616 # 80000708 <buf>
    800000c0:	0bc000ef          	jal	ra,8000017c <strcmp>
    800000c4:	00153513          	seqz	a0,a0
    800000c8:	f49ff0ef          	jal	ra,80000010 <check>
    800000cc:	00c00713          	li	a4,12
    800000d0:	00a00693          	li	a3,10
    800000d4:	00200613          	li	a2,2
    800000d8:	00000597          	auipc	a1,0x0
    800000dc:	5e058593          	addi	a1,a1,1504 # 800006b8 <_etext+0x18>
    800000e0:	00000517          	auipc	a0,0x0
    800000e4:	62850513          	addi	a0,a0,1576 # 80000708 <buf>
    800000e8:	40c000ef          	jal	ra,800004f4 <sprintf>
    800000ec:	00000597          	auipc	a1,0x0
    800000f0:	5ec58593          	addi	a1,a1,1516 # 800006d8 <_etext+0x38>
    800000f4:	00000517          	auipc	a0,0x0
    800000f8:	61450513          	addi	a0,a0,1556 # 80000708 <buf>
    800000fc:	080000ef          	jal	ra,8000017c <strcmp>
    80000100:	00153513          	seqz	a0,a0
    80000104:	f0dff0ef          	jal	ra,80000010 <check>
    80000108:	00813083          	ld	ra,8(sp)
    8000010c:	00000513          	li	a0,0
    80000110:	01010113          	addi	sp,sp,16
    80000114:	00008067          	ret

0000000080000118 <putch>:
    80000118:	00500793          	li	a5,5
    8000011c:	01d79793          	slli	a5,a5,0x1d
    80000120:	3ea78c23          	sb	a0,1016(a5)
    80000124:	00008067          	ret

0000000080000128 <halt>:
    80000128:	00050513          	mv	a0,a0
    8000012c:	00100073          	ebreak
    80000130:	0000006f          	j	80000130 <halt+0x8>

0000000080000134 <_trm_init>:
    80000134:	ff010113          	addi	sp,sp,-16
    80000138:	00000517          	auipc	a0,0x0
    8000013c:	5c850513          	addi	a0,a0,1480 # 80000700 <mainargs>
    80000140:	00113423          	sd	ra,8(sp)
    80000144:	ee5ff0ef          	jal	ra,80000028 <main>
    80000148:	00050513          	mv	a0,a0
    8000014c:	00100073          	ebreak
    80000150:	0000006f          	j	80000150 <_trm_init+0x1c>

0000000080000154 <strlen>:
    80000154:	00054703          	lbu	a4,0(a0)
    80000158:	00050793          	mv	a5,a0
    8000015c:	00000513          	li	a0,0
    80000160:	00070c63          	beqz	a4,80000178 <strlen+0x24>
    80000164:	00178793          	addi	a5,a5,1
    80000168:	0007c703          	lbu	a4,0(a5)
    8000016c:	00150513          	addi	a0,a0,1
    80000170:	fe071ae3          	bnez	a4,80000164 <strlen+0x10>
    80000174:	00008067          	ret
    80000178:	00008067          	ret

000000008000017c <strcmp>:
    8000017c:	00054703          	lbu	a4,0(a0)
    80000180:	0005c783          	lbu	a5,0(a1)
    80000184:	40f707bb          	subw	a5,a4,a5
    80000188:	02079063          	bnez	a5,800001a8 <strcmp+0x2c>
    8000018c:	02070263          	beqz	a4,800001b0 <strcmp+0x34>
    80000190:	00150513          	addi	a0,a0,1
    80000194:	00158593          	addi	a1,a1,1
    80000198:	00054703          	lbu	a4,0(a0)
    8000019c:	0005c783          	lbu	a5,0(a1)
    800001a0:	40f707bb          	subw	a5,a4,a5
    800001a4:	fe0784e3          	beqz	a5,8000018c <strcmp+0x10>
    800001a8:	0007c863          	bltz	a5,800001b8 <strcmp+0x3c>
    800001ac:	00f037b3          	snez	a5,a5
    800001b0:	00078513          	mv	a0,a5
    800001b4:	00008067          	ret
    800001b8:	fff00793          	li	a5,-1
    800001bc:	ff5ff06f          	j	800001b0 <strcmp+0x34>

00000000800001c0 <memcpy>:
    800001c0:	00060e63          	beqz	a2,800001dc <memcpy+0x1c>
    800001c4:	00c50633          	add	a2,a0,a2
    800001c8:	00158593          	addi	a1,a1,1
    800001cc:	fff5c783          	lbu	a5,-1(a1)
    800001d0:	00150513          	addi	a0,a0,1
    800001d4:	fef50fa3          	sb	a5,-1(a0)
    800001d8:	fea618e3          	bne	a2,a0,800001c8 <memcpy+0x8>
    800001dc:	00008067          	ret

00000000800001e0 <printint>:
    800001e0:	00051463          	bnez	a0,800001e8 <printint+0x8>
    800001e4:	00008067          	ret
    800001e8:	fe010113          	addi	sp,sp,-32
    800001ec:	00913423          	sd	s1,8(sp)
    800001f0:	00a00493          	li	s1,10
    800001f4:	00813823          	sd	s0,16(sp)
    800001f8:	00050413          	mv	s0,a0
    800001fc:	0295453b          	divw	a0,a0,s1
    80000200:	00113c23          	sd	ra,24(sp)
    80000204:	fddff0ef          	jal	ra,800001e0 <printint>
    80000208:	0294653b          	remw	a0,s0,s1
    8000020c:	01013403          	ld	s0,16(sp)
    80000210:	01813083          	ld	ra,24(sp)
    80000214:	00813483          	ld	s1,8(sp)
    80000218:	02010113          	addi	sp,sp,32
    8000021c:	0305051b          	addiw	a0,a0,48
    80000220:	0ff57513          	andi	a0,a0,255
    80000224:	ef5ff06f          	j	80000118 <putch>

0000000080000228 <printhex>:
    80000228:	fe010113          	addi	sp,sp,-32
    8000022c:	00913423          	sd	s1,8(sp)
    80000230:	00113c23          	sd	ra,24(sp)
    80000234:	00813823          	sd	s0,16(sp)
    80000238:	0005049b          	sext.w	s1,a0
    8000023c:	04048063          	beqz	s1,8000027c <printhex+0x54>
    80000240:	00050413          	mv	s0,a0
    80000244:	0044d51b          	srliw	a0,s1,0x4
    80000248:	0005051b          	sext.w	a0,a0
    8000024c:	00100593          	li	a1,1
    80000250:	fd9ff0ef          	jal	ra,80000228 <printhex>
    80000254:	00f4f493          	andi	s1,s1,15
    80000258:	00900793          	li	a5,9
    8000025c:	00f47513          	andi	a0,s0,15
    80000260:	0297fe63          	bleu	s1,a5,8000029c <printhex+0x74>
    80000264:	05750513          	addi	a0,a0,87
    80000268:	01013403          	ld	s0,16(sp)
    8000026c:	01813083          	ld	ra,24(sp)
    80000270:	00813483          	ld	s1,8(sp)
    80000274:	02010113          	addi	sp,sp,32
    80000278:	ea1ff06f          	j	80000118 <putch>
    8000027c:	00100793          	li	a5,1
    80000280:	03000513          	li	a0,48
    80000284:	fef592e3          	bne	a1,a5,80000268 <printhex+0x40>
    80000288:	01813083          	ld	ra,24(sp)
    8000028c:	01013403          	ld	s0,16(sp)
    80000290:	00813483          	ld	s1,8(sp)
    80000294:	02010113          	addi	sp,sp,32
    80000298:	00008067          	ret
    8000029c:	01013403          	ld	s0,16(sp)
    800002a0:	01813083          	ld	ra,24(sp)
    800002a4:	00813483          	ld	s1,8(sp)
    800002a8:	03050513          	addi	a0,a0,48
    800002ac:	02010113          	addi	sp,sp,32
    800002b0:	e69ff06f          	j	80000118 <putch>

00000000800002b4 <_i2a>:
    800002b4:	00158e13          	addi	t3,a1,1
    800002b8:	00058893          	mv	a7,a1
    800002bc:	00055c63          	bgez	a0,800002d4 <_i2a+0x20>
    800002c0:	02d00713          	li	a4,45
    800002c4:	000e0893          	mv	a7,t3
    800002c8:	40a0053b          	negw	a0,a0
    800002cc:	00e58023          	sb	a4,0(a1)
    800002d0:	00258e13          	addi	t3,a1,2
    800002d4:	00900793          	li	a5,9
    800002d8:	08a7d263          	ble	a0,a5,8000035c <_i2a+0xa8>
    800002dc:	fe010113          	addi	sp,sp,-32
    800002e0:	00010313          	mv	t1,sp
    800002e4:	00030813          	mv	a6,t1
    800002e8:	00000797          	auipc	a5,0x0
    800002ec:	40078793          	addi	a5,a5,1024 # 800006e8 <s.1446>
    800002f0:	0080006f          	j	800002f8 <_i2a+0x44>
    800002f4:	00068813          	mv	a6,a3
    800002f8:	02c5673b          	remw	a4,a0,a2
    800002fc:	00180693          	addi	a3,a6,1
    80000300:	02c5453b          	divw	a0,a0,a2
    80000304:	00e78733          	add	a4,a5,a4
    80000308:	00074703          	lbu	a4,0(a4)
    8000030c:	fee68fa3          	sb	a4,-1(a3)
    80000310:	fe0512e3          	bnez	a0,800002f4 <_i2a+0x40>
    80000314:	02680863          	beq	a6,t1,80000344 <_i2a+0x90>
    80000318:	00080793          	mv	a5,a6
    8000031c:	00088693          	mv	a3,a7
    80000320:	0080006f          	j	80000328 <_i2a+0x74>
    80000324:	0007c703          	lbu	a4,0(a5)
    80000328:	00168693          	addi	a3,a3,1
    8000032c:	fee68fa3          	sb	a4,-1(a3)
    80000330:	fff78793          	addi	a5,a5,-1
    80000334:	fe6798e3          	bne	a5,t1,80000324 <_i2a+0x70>
    80000338:	40f807b3          	sub	a5,a6,a5
    8000033c:	00f888b3          	add	a7,a7,a5
    80000340:	00188e13          	addi	t3,a7,1
    80000344:	00014783          	lbu	a5,0(sp)
    80000348:	000880a3          	sb	zero,1(a7)
    8000034c:	40be053b          	subw	a0,t3,a1
    80000350:	00f88023          	sb	a5,0(a7)
    80000354:	02010113          	addi	sp,sp,32
    80000358:	00008067          	ret
    8000035c:	00000797          	auipc	a5,0x0
    80000360:	38c78793          	addi	a5,a5,908 # 800006e8 <s.1446>
    80000364:	00a78533          	add	a0,a5,a0
    80000368:	00054783          	lbu	a5,0(a0)
    8000036c:	000880a3          	sb	zero,1(a7)
    80000370:	40be053b          	subw	a0,t3,a1
    80000374:	00f88023          	sb	a5,0(a7)
    80000378:	00008067          	ret

000000008000037c <printf>:
    8000037c:	f6010113          	addi	sp,sp,-160
    80000380:	08f13423          	sd	a5,136(sp)
    80000384:	06810793          	addi	a5,sp,104
    80000388:	04813823          	sd	s0,80(sp)
    8000038c:	05213023          	sd	s2,64(sp)
    80000390:	03313c23          	sd	s3,56(sp)
    80000394:	03413823          	sd	s4,48(sp)
    80000398:	03513423          	sd	s5,40(sp)
    8000039c:	03613023          	sd	s6,32(sp)
    800003a0:	01713c23          	sd	s7,24(sp)
    800003a4:	04113c23          	sd	ra,88(sp)
    800003a8:	04913423          	sd	s1,72(sp)
    800003ac:	00050413          	mv	s0,a0
    800003b0:	06b13423          	sd	a1,104(sp)
    800003b4:	06c13823          	sd	a2,112(sp)
    800003b8:	06d13c23          	sd	a3,120(sp)
    800003bc:	08e13023          	sd	a4,128(sp)
    800003c0:	09013823          	sd	a6,144(sp)
    800003c4:	09113c23          	sd	a7,152(sp)
    800003c8:	00f13423          	sd	a5,8(sp)
    800003cc:	02500913          	li	s2,37
    800003d0:	06400993          	li	s3,100
    800003d4:	00a00b93          	li	s7,10
    800003d8:	07300a13          	li	s4,115
    800003dc:	07800b13          	li	s6,120
    800003e0:	06300a93          	li	s5,99
    800003e4:	00044503          	lbu	a0,0(s0)
    800003e8:	00050c63          	beqz	a0,80000400 <printf+0x84>
    800003ec:	05250263          	beq	a0,s2,80000430 <printf+0xb4>
    800003f0:	d29ff0ef          	jal	ra,80000118 <putch>
    800003f4:	00140413          	addi	s0,s0,1
    800003f8:	00044503          	lbu	a0,0(s0)
    800003fc:	fe0518e3          	bnez	a0,800003ec <printf+0x70>
    80000400:	05813083          	ld	ra,88(sp)
    80000404:	05013403          	ld	s0,80(sp)
    80000408:	04813483          	ld	s1,72(sp)
    8000040c:	04013903          	ld	s2,64(sp)
    80000410:	03813983          	ld	s3,56(sp)
    80000414:	03013a03          	ld	s4,48(sp)
    80000418:	02813a83          	ld	s5,40(sp)
    8000041c:	02013b03          	ld	s6,32(sp)
    80000420:	01813b83          	ld	s7,24(sp)
    80000424:	00100513          	li	a0,1
    80000428:	0a010113          	addi	sp,sp,160
    8000042c:	00008067          	ret
    80000430:	00144503          	lbu	a0,1(s0)
    80000434:	00240413          	addi	s0,s0,2
    80000438:	05350463          	beq	a0,s3,80000480 <printf+0x104>
    8000043c:	02a9f463          	bleu	a0,s3,80000464 <printf+0xe8>
    80000440:	07450c63          	beq	a0,s4,800004b8 <printf+0x13c>
    80000444:	07651663          	bne	a0,s6,800004b0 <printf+0x134>
    80000448:	00813783          	ld	a5,8(sp)
    8000044c:	00000593          	li	a1,0
    80000450:	0007a503          	lw	a0,0(a5)
    80000454:	00878793          	addi	a5,a5,8
    80000458:	00f13423          	sd	a5,8(sp)
    8000045c:	dcdff0ef          	jal	ra,80000228 <printhex>
    80000460:	f85ff06f          	j	800003e4 <printf+0x68>
    80000464:	05551663          	bne	a0,s5,800004b0 <printf+0x134>
    80000468:	00813783          	ld	a5,8(sp)
    8000046c:	0007c503          	lbu	a0,0(a5)
    80000470:	00878793          	addi	a5,a5,8
    80000474:	00f13423          	sd	a5,8(sp)
    80000478:	ca1ff0ef          	jal	ra,80000118 <putch>
    8000047c:	f69ff06f          	j	800003e4 <printf+0x68>
    80000480:	00813783          	ld	a5,8(sp)
    80000484:	0007a483          	lw	s1,0(a5)
    80000488:	00878793          	addi	a5,a5,8
    8000048c:	00f13423          	sd	a5,8(sp)
    80000490:	f4048ae3          	beqz	s1,800003e4 <printf+0x68>
    80000494:	0374c53b          	divw	a0,s1,s7
    80000498:	d49ff0ef          	jal	ra,800001e0 <printint>
    8000049c:	0374e53b          	remw	a0,s1,s7
    800004a0:	0305051b          	addiw	a0,a0,48
    800004a4:	0ff57513          	andi	a0,a0,255
    800004a8:	c71ff0ef          	jal	ra,80000118 <putch>
    800004ac:	f39ff06f          	j	800003e4 <printf+0x68>
    800004b0:	c69ff0ef          	jal	ra,80000118 <putch>
    800004b4:	f31ff06f          	j	800003e4 <printf+0x68>
    800004b8:	00813783          	ld	a5,8(sp)
    800004bc:	0007b483          	ld	s1,0(a5)
    800004c0:	00878793          	addi	a5,a5,8
    800004c4:	00f13423          	sd	a5,8(sp)
    800004c8:	0004c503          	lbu	a0,0(s1)
    800004cc:	f0050ce3          	beqz	a0,800003e4 <printf+0x68>
    800004d0:	00148493          	addi	s1,s1,1
    800004d4:	c45ff0ef          	jal	ra,80000118 <putch>
    800004d8:	0004c503          	lbu	a0,0(s1)
    800004dc:	f00504e3          	beqz	a0,800003e4 <printf+0x68>
    800004e0:	00148493          	addi	s1,s1,1
    800004e4:	c35ff0ef          	jal	ra,80000118 <putch>
    800004e8:	0004c503          	lbu	a0,0(s1)
    800004ec:	fe0512e3          	bnez	a0,800004d0 <printf+0x154>
    800004f0:	ef5ff06f          	j	800003e4 <printf+0x68>

00000000800004f4 <sprintf>:
    800004f4:	f4010113          	addi	sp,sp,-192
    800004f8:	06913c23          	sd	s1,120(sp)
    800004fc:	0ae13023          	sd	a4,160(sp)
    80000500:	08113423          	sd	ra,136(sp)
    80000504:	08813023          	sd	s0,128(sp)
    80000508:	07213823          	sd	s2,112(sp)
    8000050c:	07313423          	sd	s3,104(sp)
    80000510:	07413023          	sd	s4,96(sp)
    80000514:	05513c23          	sd	s5,88(sp)
    80000518:	05613823          	sd	s6,80(sp)
    8000051c:	05713423          	sd	s7,72(sp)
    80000520:	05813023          	sd	s8,64(sp)
    80000524:	03913c23          	sd	s9,56(sp)
    80000528:	03a13823          	sd	s10,48(sp)
    8000052c:	08c13823          	sd	a2,144(sp)
    80000530:	08d13c23          	sd	a3,152(sp)
    80000534:	0af13423          	sd	a5,168(sp)
    80000538:	0b013823          	sd	a6,176(sp)
    8000053c:	0b113c23          	sd	a7,184(sp)
    80000540:	0005c783          	lbu	a5,0(a1)
    80000544:	09010713          	addi	a4,sp,144
    80000548:	00e13423          	sd	a4,8(sp)
    8000054c:	00050493          	mv	s1,a0
    80000550:	14078463          	beqz	a5,80000698 <sprintf+0x1a4>
    80000554:	00058413          	mv	s0,a1
    80000558:	00050b13          	mv	s6,a0
    8000055c:	02500a13          	li	s4,37
    80000560:	06400a93          	li	s5,100
    80000564:	07300c93          	li	s9,115
    80000568:	07500c13          	li	s8,117
    8000056c:	06300b93          	li	s7,99
    80000570:	0240006f          	j	80000594 <sprintf+0xa0>
    80000574:	00090713          	mv	a4,s2
    80000578:	00f48023          	sb	a5,0(s1)
    8000057c:	00040913          	mv	s2,s0
    80000580:	00100993          	li	s3,1
    80000584:	00070413          	mv	s0,a4
    80000588:	00194783          	lbu	a5,1(s2)
    8000058c:	013484b3          	add	s1,s1,s3
    80000590:	04078463          	beqz	a5,800005d8 <sprintf+0xe4>
    80000594:	00140913          	addi	s2,s0,1
    80000598:	fd479ee3          	bne	a5,s4,80000574 <sprintf+0x80>
    8000059c:	00144783          	lbu	a5,1(s0)
    800005a0:	00240413          	addi	s0,s0,2
    800005a4:	0b578663          	beq	a5,s5,80000650 <sprintf+0x15c>
    800005a8:	06fae863          	bltu	s5,a5,80000618 <sprintf+0x124>
    800005ac:	0f478063          	beq	a5,s4,8000068c <sprintf+0x198>
    800005b0:	0d779a63          	bne	a5,s7,80000684 <sprintf+0x190>
    800005b4:	00813783          	ld	a5,8(sp)
    800005b8:	00100993          	li	s3,1
    800005bc:	0007a703          	lw	a4,0(a5)
    800005c0:	00878793          	addi	a5,a5,8
    800005c4:	00f13423          	sd	a5,8(sp)
    800005c8:	00e48023          	sb	a4,0(s1)
    800005cc:	00194783          	lbu	a5,1(s2)
    800005d0:	013484b3          	add	s1,s1,s3
    800005d4:	fc0790e3          	bnez	a5,80000594 <sprintf+0xa0>
    800005d8:	4164853b          	subw	a0,s1,s6
    800005dc:	00048023          	sb	zero,0(s1)
    800005e0:	08813083          	ld	ra,136(sp)
    800005e4:	08013403          	ld	s0,128(sp)
    800005e8:	07813483          	ld	s1,120(sp)
    800005ec:	07013903          	ld	s2,112(sp)
    800005f0:	06813983          	ld	s3,104(sp)
    800005f4:	06013a03          	ld	s4,96(sp)
    800005f8:	05813a83          	ld	s5,88(sp)
    800005fc:	05013b03          	ld	s6,80(sp)
    80000600:	04813b83          	ld	s7,72(sp)
    80000604:	04013c03          	ld	s8,64(sp)
    80000608:	03813c83          	ld	s9,56(sp)
    8000060c:	03013d03          	ld	s10,48(sp)
    80000610:	0c010113          	addi	sp,sp,192
    80000614:	00008067          	ret
    80000618:	03979a63          	bne	a5,s9,8000064c <sprintf+0x158>
    8000061c:	00813783          	ld	a5,8(sp)
    80000620:	0007bd03          	ld	s10,0(a5)
    80000624:	00878793          	addi	a5,a5,8
    80000628:	00f13423          	sd	a5,8(sp)
    8000062c:	000d0513          	mv	a0,s10
    80000630:	b25ff0ef          	jal	ra,80000154 <strlen>
    80000634:	0005099b          	sext.w	s3,a0
    80000638:	00098613          	mv	a2,s3
    8000063c:	000d0593          	mv	a1,s10
    80000640:	00048513          	mv	a0,s1
    80000644:	b7dff0ef          	jal	ra,800001c0 <memcpy>
    80000648:	f41ff06f          	j	80000588 <sprintf+0x94>
    8000064c:	03879c63          	bne	a5,s8,80000684 <sprintf+0x190>
    80000650:	00813783          	ld	a5,8(sp)
    80000654:	01010593          	addi	a1,sp,16
    80000658:	00a00613          	li	a2,10
    8000065c:	0007a503          	lw	a0,0(a5)
    80000660:	00878793          	addi	a5,a5,8
    80000664:	00f13423          	sd	a5,8(sp)
    80000668:	c4dff0ef          	jal	ra,800002b4 <_i2a>
    8000066c:	00050993          	mv	s3,a0
    80000670:	00050613          	mv	a2,a0
    80000674:	01010593          	addi	a1,sp,16
    80000678:	00048513          	mv	a0,s1
    8000067c:	b45ff0ef          	jal	ra,800001c0 <memcpy>
    80000680:	f09ff06f          	j	80000588 <sprintf+0x94>
    80000684:	00100993          	li	s3,1
    80000688:	f01ff06f          	j	80000588 <sprintf+0x94>
    8000068c:	01448023          	sb	s4,0(s1)
    80000690:	00100993          	li	s3,1
    80000694:	ef5ff06f          	j	80000588 <sprintf+0x94>
    80000698:	00000513          	li	a0,0
    8000069c:	f41ff06f          	j	800005dc <sprintf+0xe8>
