
/home/guodl/Desktop/ysyx/ysyx-workbench/ics2022/am-kernels/tests/cpu-tests/build/matrix-mul-riscv64-nemu.elf:     file format elf64-littleriscv


Disassembly of section .text:

0000000080000000 <_start>:
    80000000:	00000413          	li	s0,0
    80000004:	00009117          	auipc	sp,0x9
    80000008:	ffc10113          	addi	sp,sp,-4 # 80009000 <_end>
    8000000c:	130000ef          	jal	ra,8000013c <_trm_init>

0000000080000010 <check>:
    80000010:	00050463          	beqz	a0,80000018 <check+0x8>
    80000014:	00008067          	ret
    80000018:	ff010113          	addi	sp,sp,-16
    8000001c:	00100513          	li	a0,1
    80000020:	00113423          	sd	ra,8(sp)
    80000024:	10c000ef          	jal	ra,80000130 <halt>

0000000080000028 <main>:
    80000028:	fb010113          	addi	sp,sp,-80
    8000002c:	04813023          	sd	s0,64(sp)
    80000030:	02913c23          	sd	s1,56(sp)
    80000034:	03213823          	sd	s2,48(sp)
    80000038:	03313423          	sd	s3,40(sp)
    8000003c:	03413023          	sd	s4,32(sp)
    80000040:	04113423          	sd	ra,72(sp)
    80000044:	01513c23          	sd	s5,24(sp)
    80000048:	01613823          	sd	s6,16(sp)
    8000004c:	01713423          	sd	s7,8(sp)
    80000050:	00000417          	auipc	s0,0x0
    80000054:	11840413          	addi	s0,s0,280 # 80000168 <a>
    80000058:	00000997          	auipc	s3,0x0
    8000005c:	5c098993          	addi	s3,s3,1472 # 80000618 <c>
    80000060:	00000917          	auipc	s2,0x0
    80000064:	29890913          	addi	s2,s2,664 # 800002f8 <ans>
    80000068:	00000a17          	auipc	s4,0x0
    8000006c:	290a0a13          	addi	s4,s4,656 # 800002f8 <ans>
    80000070:	00000497          	auipc	s1,0x0
    80000074:	44048493          	addi	s1,s1,1088 # 800004b0 <b+0x28>
    80000078:	00000a97          	auipc	s5,0x0
    8000007c:	410a8a93          	addi	s5,s5,1040 # 80000488 <b>
    80000080:	00090b93          	mv	s7,s2
    80000084:	00098b13          	mv	s6,s3
    80000088:	190a8593          	addi	a1,s5,400
    8000008c:	000a8793          	mv	a5,s5
    80000090:	00040693          	mv	a3,s0
    80000094:	00000513          	li	a0,0
    80000098:	0006a703          	lw	a4,0(a3)
    8000009c:	0007a603          	lw	a2,0(a5)
    800000a0:	02878793          	addi	a5,a5,40
    800000a4:	00468693          	addi	a3,a3,4
    800000a8:	02c7073b          	mulw	a4,a4,a2
    800000ac:	00a7053b          	addw	a0,a4,a0
    800000b0:	feb794e3          	bne	a5,a1,80000098 <main+0x70>
    800000b4:	000ba783          	lw	a5,0(s7)
    800000b8:	00ab2023          	sw	a0,0(s6)
    800000bc:	004a8a93          	addi	s5,s5,4
    800000c0:	40a78533          	sub	a0,a5,a0
    800000c4:	00153513          	seqz	a0,a0
    800000c8:	f49ff0ef          	jal	ra,80000010 <check>
    800000cc:	00100513          	li	a0,1
    800000d0:	f41ff0ef          	jal	ra,80000010 <check>
    800000d4:	004b0b13          	addi	s6,s6,4
    800000d8:	004b8b93          	addi	s7,s7,4
    800000dc:	fa9a96e3          	bne	s5,s1,80000088 <main+0x60>
    800000e0:	00100513          	li	a0,1
    800000e4:	02840413          	addi	s0,s0,40
    800000e8:	f29ff0ef          	jal	ra,80000010 <check>
    800000ec:	02898993          	addi	s3,s3,40
    800000f0:	02890913          	addi	s2,s2,40
    800000f4:	f94412e3          	bne	s0,s4,80000078 <main+0x50>
    800000f8:	00100513          	li	a0,1
    800000fc:	f15ff0ef          	jal	ra,80000010 <check>
    80000100:	04813083          	ld	ra,72(sp)
    80000104:	04013403          	ld	s0,64(sp)
    80000108:	03813483          	ld	s1,56(sp)
    8000010c:	03013903          	ld	s2,48(sp)
    80000110:	02813983          	ld	s3,40(sp)
    80000114:	02013a03          	ld	s4,32(sp)
    80000118:	01813a83          	ld	s5,24(sp)
    8000011c:	01013b03          	ld	s6,16(sp)
    80000120:	00813b83          	ld	s7,8(sp)
    80000124:	00000513          	li	a0,0
    80000128:	05010113          	addi	sp,sp,80
    8000012c:	00008067          	ret

0000000080000130 <halt>:
    80000130:	00050513          	mv	a0,a0
    80000134:	00100073          	ebreak
    80000138:	0000006f          	j	80000138 <halt+0x8>

000000008000013c <_trm_init>:
    8000013c:	ff010113          	addi	sp,sp,-16
    80000140:	00000517          	auipc	a0,0x0
    80000144:	02050513          	addi	a0,a0,32 # 80000160 <mainargs>
    80000148:	00113423          	sd	ra,8(sp)
    8000014c:	eddff0ef          	jal	ra,80000028 <main>
    80000150:	00050513          	mv	a0,a0
    80000154:	00100073          	ebreak
    80000158:	0000006f          	j	80000158 <_trm_init+0x1c>
