
/home/guodl/Desktop/ysyx/ysyx-workbench/ics2022/am-kernels/tests/cpu-tests/build/mul-longlong-riscv64-nemu.elf:     file format elf64-littleriscv


Disassembly of section .text:

0000000080000000 <_start>:
    80000000:	00000413          	li	s0,0
    80000004:	00009117          	auipc	sp,0x9
    80000008:	ffc10113          	addi	sp,sp,-4 # 80009000 <_end>
    8000000c:	10c000ef          	jal	ra,80000118 <_trm_init>

0000000080000010 <check>:
    80000010:	00050463          	beqz	a0,80000018 <check+0x8>
    80000014:	00008067          	ret
    80000018:	ff010113          	addi	sp,sp,-16
    8000001c:	00100513          	li	a0,1
    80000020:	00113423          	sd	ra,8(sp)
    80000024:	0e8000ef          	jal	ra,8000010c <halt>

0000000080000028 <main>:
    80000028:	fb010113          	addi	sp,sp,-80
    8000002c:	03213823          	sd	s2,48(sp)
    80000030:	03313423          	sd	s3,40(sp)
    80000034:	03413023          	sd	s4,32(sp)
    80000038:	01513c23          	sd	s5,24(sp)
    8000003c:	01613823          	sd	s6,16(sp)
    80000040:	04113423          	sd	ra,72(sp)
    80000044:	04813023          	sd	s0,64(sp)
    80000048:	02913c23          	sd	s1,56(sp)
    8000004c:	01713423          	sd	s7,8(sp)
    80000050:	01813023          	sd	s8,0(sp)
    80000054:	00000a97          	auipc	s5,0x0
    80000058:	140a8a93          	addi	s5,s5,320 # 80000194 <test_data+0x4>
    8000005c:	00000993          	li	s3,0
    80000060:	00000913          	li	s2,0
    80000064:	00000b17          	auipc	s6,0x0
    80000068:	0dcb0b13          	addi	s6,s6,220 # 80000140 <ans>
    8000006c:	00400a13          	li	s4,4
    80000070:	ffcaa503          	lw	a0,-4(s5)
    80000074:	00399413          	slli	s0,s3,0x3
    80000078:	008b0433          	add	s0,s6,s0
    8000007c:	00050b93          	mv	s7,a0
    80000080:	000a8c13          	mv	s8,s5
    80000084:	00090493          	mv	s1,s2
    80000088:	03750533          	mul	a0,a0,s7
    8000008c:	00043783          	ld	a5,0(s0)
    80000090:	0014849b          	addiw	s1,s1,1
    80000094:	00840413          	addi	s0,s0,8
    80000098:	40a78533          	sub	a0,a5,a0
    8000009c:	00153513          	seqz	a0,a0
    800000a0:	f71ff0ef          	jal	ra,80000010 <check>
    800000a4:	01448863          	beq	s1,s4,800000b4 <main+0x8c>
    800000a8:	000c2503          	lw	a0,0(s8)
    800000ac:	004c0c13          	addi	s8,s8,4
    800000b0:	fd9ff06f          	j	80000088 <main+0x60>
    800000b4:	0049899b          	addiw	s3,s3,4
    800000b8:	412989bb          	subw	s3,s3,s2
    800000bc:	00100513          	li	a0,1
    800000c0:	0019091b          	addiw	s2,s2,1
    800000c4:	f4dff0ef          	jal	ra,80000010 <check>
    800000c8:	004a8a93          	addi	s5,s5,4
    800000cc:	fa9912e3          	bne	s2,s1,80000070 <main+0x48>
    800000d0:	00100513          	li	a0,1
    800000d4:	f3dff0ef          	jal	ra,80000010 <check>
    800000d8:	04813083          	ld	ra,72(sp)
    800000dc:	04013403          	ld	s0,64(sp)
    800000e0:	03813483          	ld	s1,56(sp)
    800000e4:	03013903          	ld	s2,48(sp)
    800000e8:	02813983          	ld	s3,40(sp)
    800000ec:	02013a03          	ld	s4,32(sp)
    800000f0:	01813a83          	ld	s5,24(sp)
    800000f4:	01013b03          	ld	s6,16(sp)
    800000f8:	00813b83          	ld	s7,8(sp)
    800000fc:	00013c03          	ld	s8,0(sp)
    80000100:	00000513          	li	a0,0
    80000104:	05010113          	addi	sp,sp,80
    80000108:	00008067          	ret

000000008000010c <halt>:
    8000010c:	00050513          	mv	a0,a0
    80000110:	00100073          	ebreak
    80000114:	0000006f          	j	80000114 <halt+0x8>

0000000080000118 <_trm_init>:
    80000118:	ff010113          	addi	sp,sp,-16
    8000011c:	00000517          	auipc	a0,0x0
    80000120:	01c50513          	addi	a0,a0,28 # 80000138 <_etext>
    80000124:	00113423          	sd	ra,8(sp)
    80000128:	f01ff0ef          	jal	ra,80000028 <main>
    8000012c:	00050513          	mv	a0,a0
    80000130:	00100073          	ebreak
    80000134:	0000006f          	j	80000134 <_trm_init+0x1c>
