
/home/guodl/Desktop/ysyx/ysyx-workbench/ics2022/am-kernels/tests/cpu-tests/build/pascal-riscv64-nemu.elf:     file format elf64-littleriscv


Disassembly of section .text:

0000000080000000 <_start>:
    80000000:	00000413          	li	s0,0
    80000004:	00009117          	auipc	sp,0x9
    80000008:	ffc10113          	addi	sp,sp,-4 # 80009000 <_end>
    8000000c:	0fc000ef          	jal	ra,80000108 <_trm_init>

0000000080000010 <check>:
    80000010:	00050463          	beqz	a0,80000018 <check+0x8>
    80000014:	00008067          	ret
    80000018:	ff010113          	addi	sp,sp,-16
    8000001c:	00100513          	li	a0,1
    80000020:	00113423          	sd	ra,8(sp)
    80000024:	0d8000ef          	jal	ra,800000fc <halt>

0000000080000028 <main>:
    80000028:	00100793          	li	a5,1
    8000002c:	fe010113          	addi	sp,sp,-32
    80000030:	00000817          	auipc	a6,0x0
    80000034:	18080813          	addi	a6,a6,384 # 800001b0 <a>
    80000038:	00000717          	auipc	a4,0x0
    8000003c:	16f72e23          	sw	a5,380(a4) # 800001b4 <a+0x4>
    80000040:	00000717          	auipc	a4,0x0
    80000044:	16f72823          	sw	a5,368(a4) # 800001b0 <a>
    80000048:	00813823          	sd	s0,16(sp)
    8000004c:	00913423          	sd	s1,8(sp)
    80000050:	00113c23          	sd	ra,24(sp)
    80000054:	01213023          	sd	s2,0(sp)
    80000058:	00000417          	auipc	s0,0x0
    8000005c:	16040413          	addi	s0,s0,352 # 800001b8 <a+0x8>
    80000060:	00080493          	mv	s1,a6
    80000064:	00000517          	auipc	a0,0x0
    80000068:	1c850513          	addi	a0,a0,456 # 8000022c <a+0x7c>
    8000006c:	00100713          	li	a4,1
    80000070:	00100593          	li	a1,1
    80000074:	00000797          	auipc	a5,0x0
    80000078:	14078793          	addi	a5,a5,320 # 800001b4 <a+0x4>
    8000007c:	00100693          	li	a3,1
    80000080:	0080006f          	j	80000088 <main+0x60>
    80000084:	0007a703          	lw	a4,0(a5)
    80000088:	00d7063b          	addw	a2,a4,a3
    8000008c:	00c7a023          	sw	a2,0(a5)
    80000090:	00478793          	addi	a5,a5,4
    80000094:	00070693          	mv	a3,a4
    80000098:	fe8796e3          	bne	a5,s0,80000084 <main+0x5c>
    8000009c:	00b42023          	sw	a1,0(s0)
    800000a0:	00440413          	addi	s0,s0,4
    800000a4:	00a40663          	beq	s0,a0,800000b0 <main+0x88>
    800000a8:	00482703          	lw	a4,4(a6)
    800000ac:	fc9ff06f          	j	80000074 <main+0x4c>
    800000b0:	00000917          	auipc	s2,0x0
    800000b4:	08090913          	addi	s2,s2,128 # 80000130 <ans>
    800000b8:	0004a503          	lw	a0,0(s1)
    800000bc:	00092783          	lw	a5,0(s2)
    800000c0:	00448493          	addi	s1,s1,4
    800000c4:	00490913          	addi	s2,s2,4
    800000c8:	40f50533          	sub	a0,a0,a5
    800000cc:	00153513          	seqz	a0,a0
    800000d0:	f41ff0ef          	jal	ra,80000010 <check>
    800000d4:	fe8492e3          	bne	s1,s0,800000b8 <main+0x90>
    800000d8:	00100513          	li	a0,1
    800000dc:	f35ff0ef          	jal	ra,80000010 <check>
    800000e0:	01813083          	ld	ra,24(sp)
    800000e4:	01013403          	ld	s0,16(sp)
    800000e8:	00813483          	ld	s1,8(sp)
    800000ec:	00013903          	ld	s2,0(sp)
    800000f0:	00000513          	li	a0,0
    800000f4:	02010113          	addi	sp,sp,32
    800000f8:	00008067          	ret

00000000800000fc <halt>:
    800000fc:	00050513          	mv	a0,a0
    80000100:	00100073          	ebreak
    80000104:	0000006f          	j	80000104 <halt+0x8>

0000000080000108 <_trm_init>:
    80000108:	ff010113          	addi	sp,sp,-16
    8000010c:	00000517          	auipc	a0,0x0
    80000110:	01c50513          	addi	a0,a0,28 # 80000128 <_etext>
    80000114:	00113423          	sd	ra,8(sp)
    80000118:	f11ff0ef          	jal	ra,80000028 <main>
    8000011c:	00050513          	mv	a0,a0
    80000120:	00100073          	ebreak
    80000124:	0000006f          	j	80000124 <_trm_init+0x1c>
