
/home/guodl/Desktop/ysyx/ysyx-workbench/ics2022/am-kernels/tests/cpu-tests/build/quick-sort-riscv64-nemu.elf:     file format elf64-littleriscv


Disassembly of section .text:

0000000080000000 <_start>:
    80000000:	00000413          	li	s0,0
    80000004:	00009117          	auipc	sp,0x9
    80000008:	ffc10113          	addi	sp,sp,-4 # 80009000 <_end>
    8000000c:	218000ef          	jal	ra,80000224 <_trm_init>

0000000080000010 <check>:
    80000010:	00050463          	beqz	a0,80000018 <check+0x8>
    80000014:	00008067          	ret
    80000018:	ff010113          	addi	sp,sp,-16
    8000001c:	00100513          	li	a0,1
    80000020:	00113423          	sd	ra,8(sp)
    80000024:	1f4000ef          	jal	ra,80000218 <halt>

0000000080000028 <partition>:
    80000028:	00259793          	slli	a5,a1,0x2
    8000002c:	00f50333          	add	t1,a0,a5
    80000030:	00032883          	lw	a7,0(t1)
    80000034:	0ac5d463          	ble	a2,a1,800000dc <partition+0xb4>
    80000038:	00261693          	slli	a3,a2,0x2
    8000003c:	00d50733          	add	a4,a0,a3
    80000040:	00072703          	lw	a4,0(a4)
    80000044:	ffc68693          	addi	a3,a3,-4
    80000048:	00d506b3          	add	a3,a0,a3
    8000004c:	00068813          	mv	a6,a3
    80000050:	ffc68693          	addi	a3,a3,-4
    80000054:	02e8d663          	ble	a4,a7,80000080 <partition+0x58>
    80000058:	fff6061b          	addiw	a2,a2,-1
    8000005c:	0046a703          	lw	a4,4(a3)
    80000060:	fec5c6e3          	blt	a1,a2,8000004c <partition+0x24>
    80000064:	00f50333          	add	t1,a0,a5
    80000068:	00e32023          	sw	a4,0(t1)
    8000006c:	00058613          	mv	a2,a1
    80000070:	00e82023          	sw	a4,0(a6)
    80000074:	01132023          	sw	a7,0(t1)
    80000078:	00060513          	mv	a0,a2
    8000007c:	00008067          	ret
    80000080:	00f50333          	add	t1,a0,a5
    80000084:	00261693          	slli	a3,a2,0x2
    80000088:	00e32023          	sw	a4,0(t1)
    8000008c:	00d50833          	add	a6,a0,a3
    80000090:	02c5dc63          	ble	a2,a1,800000c8 <partition+0xa0>
    80000094:	00478793          	addi	a5,a5,4
    80000098:	00f507b3          	add	a5,a0,a5
    8000009c:	00c0006f          	j	800000a8 <partition+0x80>
    800000a0:	00478793          	addi	a5,a5,4
    800000a4:	00e8cc63          	blt	a7,a4,800000bc <partition+0x94>
    800000a8:	0015859b          	addiw	a1,a1,1
    800000ac:	0007a703          	lw	a4,0(a5)
    800000b0:	00078313          	mv	t1,a5
    800000b4:	fec596e3          	bne	a1,a2,800000a0 <partition+0x78>
    800000b8:	fb9ff06f          	j	80000070 <partition+0x48>
    800000bc:	00e82023          	sw	a4,0(a6)
    800000c0:	00259793          	slli	a5,a1,0x2
    800000c4:	f81ff06f          	j	80000044 <partition+0x1c>
    800000c8:	00e82023          	sw	a4,0(a6)
    800000cc:	00058613          	mv	a2,a1
    800000d0:	01132023          	sw	a7,0(t1)
    800000d4:	00060513          	mv	a0,a2
    800000d8:	00008067          	ret
    800000dc:	00058613          	mv	a2,a1
    800000e0:	01132023          	sw	a7,0(t1)
    800000e4:	00060513          	mv	a0,a2
    800000e8:	00008067          	ret

00000000800000ec <quick_sort>:
    800000ec:	06c5d463          	ble	a2,a1,80000154 <quick_sort+0x68>
    800000f0:	fe010113          	addi	sp,sp,-32
    800000f4:	00813823          	sd	s0,16(sp)
    800000f8:	00913423          	sd	s1,8(sp)
    800000fc:	01213023          	sd	s2,0(sp)
    80000100:	00113c23          	sd	ra,24(sp)
    80000104:	00058413          	mv	s0,a1
    80000108:	00060493          	mv	s1,a2
    8000010c:	00050913          	mv	s2,a0
    80000110:	00040593          	mv	a1,s0
    80000114:	00048613          	mv	a2,s1
    80000118:	00090513          	mv	a0,s2
    8000011c:	f0dff0ef          	jal	ra,80000028 <partition>
    80000120:	00050793          	mv	a5,a0
    80000124:	00040593          	mv	a1,s0
    80000128:	fff5061b          	addiw	a2,a0,-1
    8000012c:	0017841b          	addiw	s0,a5,1
    80000130:	00090513          	mv	a0,s2
    80000134:	fb9ff0ef          	jal	ra,800000ec <quick_sort>
    80000138:	fc944ce3          	blt	s0,s1,80000110 <quick_sort+0x24>
    8000013c:	01813083          	ld	ra,24(sp)
    80000140:	01013403          	ld	s0,16(sp)
    80000144:	00813483          	ld	s1,8(sp)
    80000148:	00013903          	ld	s2,0(sp)
    8000014c:	02010113          	addi	sp,sp,32
    80000150:	00008067          	ret
    80000154:	00008067          	ret

0000000080000158 <main>:
    80000158:	fd010113          	addi	sp,sp,-48
    8000015c:	00000517          	auipc	a0,0x0
    80000160:	0f450513          	addi	a0,a0,244 # 80000250 <a>
    80000164:	00913c23          	sd	s1,24(sp)
    80000168:	01300613          	li	a2,19
    8000016c:	00050493          	mv	s1,a0
    80000170:	00000593          	li	a1,0
    80000174:	02813023          	sd	s0,32(sp)
    80000178:	01213823          	sd	s2,16(sp)
    8000017c:	01313423          	sd	s3,8(sp)
    80000180:	02113423          	sd	ra,40(sp)
    80000184:	00048913          	mv	s2,s1
    80000188:	f65ff0ef          	jal	ra,800000ec <quick_sort>
    8000018c:	00000413          	li	s0,0
    80000190:	01400993          	li	s3,20
    80000194:	00092503          	lw	a0,0(s2)
    80000198:	00490913          	addi	s2,s2,4
    8000019c:	40850533          	sub	a0,a0,s0
    800001a0:	00153513          	seqz	a0,a0
    800001a4:	0014041b          	addiw	s0,s0,1
    800001a8:	e69ff0ef          	jal	ra,80000010 <check>
    800001ac:	ff3414e3          	bne	s0,s3,80000194 <main+0x3c>
    800001b0:	00100513          	li	a0,1
    800001b4:	e5dff0ef          	jal	ra,80000010 <check>
    800001b8:	01300613          	li	a2,19
    800001bc:	00000593          	li	a1,0
    800001c0:	00000517          	auipc	a0,0x0
    800001c4:	09050513          	addi	a0,a0,144 # 80000250 <a>
    800001c8:	f25ff0ef          	jal	ra,800000ec <quick_sort>
    800001cc:	00000413          	li	s0,0
    800001d0:	01400913          	li	s2,20
    800001d4:	0004a503          	lw	a0,0(s1)
    800001d8:	00448493          	addi	s1,s1,4
    800001dc:	40850533          	sub	a0,a0,s0
    800001e0:	00153513          	seqz	a0,a0
    800001e4:	0014041b          	addiw	s0,s0,1
    800001e8:	e29ff0ef          	jal	ra,80000010 <check>
    800001ec:	ff2414e3          	bne	s0,s2,800001d4 <main+0x7c>
    800001f0:	00100513          	li	a0,1
    800001f4:	e1dff0ef          	jal	ra,80000010 <check>
    800001f8:	02813083          	ld	ra,40(sp)
    800001fc:	02013403          	ld	s0,32(sp)
    80000200:	01813483          	ld	s1,24(sp)
    80000204:	01013903          	ld	s2,16(sp)
    80000208:	00813983          	ld	s3,8(sp)
    8000020c:	00000513          	li	a0,0
    80000210:	03010113          	addi	sp,sp,48
    80000214:	00008067          	ret

0000000080000218 <halt>:
    80000218:	00050513          	mv	a0,a0
    8000021c:	00100073          	ebreak
    80000220:	0000006f          	j	80000220 <halt+0x8>

0000000080000224 <_trm_init>:
    80000224:	ff010113          	addi	sp,sp,-16
    80000228:	00000517          	auipc	a0,0x0
    8000022c:	02050513          	addi	a0,a0,32 # 80000248 <mainargs>
    80000230:	00113423          	sd	ra,8(sp)
    80000234:	f25ff0ef          	jal	ra,80000158 <main>
    80000238:	00050513          	mv	a0,a0
    8000023c:	00100073          	ebreak
    80000240:	0000006f          	j	80000240 <_trm_init+0x1c>
