
/home/guodl/Desktop/ysyx/ysyx-workbench/ics2022/am-kernels/tests/cpu-tests/build/recursion-riscv64-nemu.elf:     file format elf64-littleriscv


Disassembly of section .text:

0000000080000000 <_start>:
    80000000:	00000413          	li	s0,0
    80000004:	00009117          	auipc	sp,0x9
    80000008:	ffc10113          	addi	sp,sp,-4 # 80009000 <_end>
    8000000c:	27c000ef          	jal	ra,80000288 <_trm_init>

0000000080000010 <f0>:
    80000010:	00000797          	auipc	a5,0x0
    80000014:	2d078793          	addi	a5,a5,720 # 800002e0 <lvl>
    80000018:	0007a783          	lw	a5,0(a5)
    8000001c:	00b7d663          	ble	a1,a5,80000028 <f0+0x18>
    80000020:	00000797          	auipc	a5,0x0
    80000024:	2cb7a023          	sw	a1,704(a5) # 800002e0 <lvl>
    80000028:	00000797          	auipc	a5,0x0
    8000002c:	2bc78793          	addi	a5,a5,700 # 800002e4 <rec>
    80000030:	0007a783          	lw	a5,0(a5)
    80000034:	0017879b          	addiw	a5,a5,1
    80000038:	00000717          	auipc	a4,0x0
    8000003c:	2af72623          	sw	a5,684(a4) # 800002e4 <rec>
    80000040:	02a05063          	blez	a0,80000060 <f0+0x50>
    80000044:	00300793          	li	a5,3
    80000048:	02f5453b          	divw	a0,a0,a5
    8000004c:	00000797          	auipc	a5,0x0
    80000050:	27478793          	addi	a5,a5,628 # 800002c0 <func>
    80000054:	0187b303          	ld	t1,24(a5)
    80000058:	0015859b          	addiw	a1,a1,1
    8000005c:	00030067          	jr	t1
    80000060:	00100513          	li	a0,1
    80000064:	00008067          	ret

0000000080000068 <f1>:
    80000068:	00000797          	auipc	a5,0x0
    8000006c:	27878793          	addi	a5,a5,632 # 800002e0 <lvl>
    80000070:	0007a783          	lw	a5,0(a5)
    80000074:	00b7d663          	ble	a1,a5,80000080 <f1+0x18>
    80000078:	00000797          	auipc	a5,0x0
    8000007c:	26b7a423          	sw	a1,616(a5) # 800002e0 <lvl>
    80000080:	00000797          	auipc	a5,0x0
    80000084:	26478793          	addi	a5,a5,612 # 800002e4 <rec>
    80000088:	0007a783          	lw	a5,0(a5)
    8000008c:	0017879b          	addiw	a5,a5,1
    80000090:	00000717          	auipc	a4,0x0
    80000094:	24f72a23          	sw	a5,596(a4) # 800002e4 <rec>
    80000098:	00a05e63          	blez	a0,800000b4 <f1+0x4c>
    8000009c:	00000797          	auipc	a5,0x0
    800000a0:	22478793          	addi	a5,a5,548 # 800002c0 <func>
    800000a4:	0007b303          	ld	t1,0(a5)
    800000a8:	0015859b          	addiw	a1,a1,1
    800000ac:	fff5051b          	addiw	a0,a0,-1
    800000b0:	00030067          	jr	t1
    800000b4:	00100513          	li	a0,1
    800000b8:	00008067          	ret

00000000800000bc <f2>:
    800000bc:	00000797          	auipc	a5,0x0
    800000c0:	22478793          	addi	a5,a5,548 # 800002e0 <lvl>
    800000c4:	0007a783          	lw	a5,0(a5)
    800000c8:	00b7d663          	ble	a1,a5,800000d4 <f2+0x18>
    800000cc:	00000797          	auipc	a5,0x0
    800000d0:	20b7aa23          	sw	a1,532(a5) # 800002e0 <lvl>
    800000d4:	00000797          	auipc	a5,0x0
    800000d8:	21078793          	addi	a5,a5,528 # 800002e4 <rec>
    800000dc:	0007a783          	lw	a5,0(a5)
    800000e0:	0017879b          	addiw	a5,a5,1
    800000e4:	00000717          	auipc	a4,0x0
    800000e8:	20f72023          	sw	a5,512(a4) # 800002e4 <rec>
    800000ec:	02a05863          	blez	a0,8000011c <f2+0x60>
    800000f0:	00000797          	auipc	a5,0x0
    800000f4:	1d078793          	addi	a5,a5,464 # 800002c0 <func>
    800000f8:	0087b783          	ld	a5,8(a5)
    800000fc:	ff010113          	addi	sp,sp,-16
    80000100:	00113423          	sd	ra,8(sp)
    80000104:	0015859b          	addiw	a1,a1,1
    80000108:	000780e7          	jalr	a5
    8000010c:	00813083          	ld	ra,8(sp)
    80000110:	0095051b          	addiw	a0,a0,9
    80000114:	01010113          	addi	sp,sp,16
    80000118:	00008067          	ret
    8000011c:	00100513          	li	a0,1
    80000120:	00008067          	ret

0000000080000124 <f3>:
    80000124:	00000797          	auipc	a5,0x0
    80000128:	1bc78793          	addi	a5,a5,444 # 800002e0 <lvl>
    8000012c:	0007a783          	lw	a5,0(a5)
    80000130:	00b7d663          	ble	a1,a5,8000013c <f3+0x18>
    80000134:	00000797          	auipc	a5,0x0
    80000138:	1ab7a623          	sw	a1,428(a5) # 800002e0 <lvl>
    8000013c:	00000797          	auipc	a5,0x0
    80000140:	1a878793          	addi	a5,a5,424 # 800002e4 <rec>
    80000144:	0007a783          	lw	a5,0(a5)
    80000148:	0017879b          	addiw	a5,a5,1
    8000014c:	00000717          	auipc	a4,0x0
    80000150:	18f72c23          	sw	a5,408(a4) # 800002e4 <rec>
    80000154:	06a05e63          	blez	a0,800001d0 <f3+0xac>
    80000158:	fd010113          	addi	sp,sp,-48
    8000015c:	01313423          	sd	s3,8(sp)
    80000160:	00000997          	auipc	s3,0x0
    80000164:	16098993          	addi	s3,s3,352 # 800002c0 <func>
    80000168:	0109b783          	ld	a5,16(s3)
    8000016c:	02813023          	sd	s0,32(sp)
    80000170:	00913c23          	sd	s1,24(sp)
    80000174:	0015841b          	addiw	s0,a1,1
    80000178:	40155493          	srai	s1,a0,0x1
    8000017c:	02113423          	sd	ra,40(sp)
    80000180:	01213823          	sd	s2,16(sp)
    80000184:	00040593          	mv	a1,s0
    80000188:	00048513          	mv	a0,s1
    8000018c:	000780e7          	jalr	a5
    80000190:	0109b783          	ld	a5,16(s3)
    80000194:	00050913          	mv	s2,a0
    80000198:	00040593          	mv	a1,s0
    8000019c:	00048513          	mv	a0,s1
    800001a0:	000780e7          	jalr	a5
    800001a4:	02813083          	ld	ra,40(sp)
    800001a8:	02013403          	ld	s0,32(sp)
    800001ac:	0019179b          	slliw	a5,s2,0x1
    800001b0:	012787bb          	addw	a5,a5,s2
    800001b4:	0015151b          	slliw	a0,a0,0x1
    800001b8:	01813483          	ld	s1,24(sp)
    800001bc:	01013903          	ld	s2,16(sp)
    800001c0:	00813983          	ld	s3,8(sp)
    800001c4:	00a7853b          	addw	a0,a5,a0
    800001c8:	03010113          	addi	sp,sp,48
    800001cc:	00008067          	ret
    800001d0:	00100513          	li	a0,1
    800001d4:	00008067          	ret

00000000800001d8 <check>:
    800001d8:	00050463          	beqz	a0,800001e0 <check+0x8>
    800001dc:	00008067          	ret
    800001e0:	ff010113          	addi	sp,sp,-16
    800001e4:	00100513          	li	a0,1
    800001e8:	00113423          	sd	ra,8(sp)
    800001ec:	090000ef          	jal	ra,8000027c <halt>

00000000800001f0 <main>:
    800001f0:	00000797          	auipc	a5,0x0
    800001f4:	0d078793          	addi	a5,a5,208 # 800002c0 <func>
    800001f8:	0007b783          	ld	a5,0(a5)
    800001fc:	ff010113          	addi	sp,sp,-16
    80000200:	00004537          	lui	a0,0x4
    80000204:	00113423          	sd	ra,8(sp)
    80000208:	00813023          	sd	s0,0(sp)
    8000020c:	00000593          	li	a1,0
    80000210:	82350513          	addi	a0,a0,-2013 # 3823 <_entry_offset+0x3823>
    80000214:	000780e7          	jalr	a5
    80000218:	00000417          	auipc	s0,0x0
    8000021c:	09840413          	addi	s0,s0,152 # 800002b0 <ans>
    80000220:	00042783          	lw	a5,0(s0)
    80000224:	40a78533          	sub	a0,a5,a0
    80000228:	00153513          	seqz	a0,a0
    8000022c:	fadff0ef          	jal	ra,800001d8 <check>
    80000230:	00000797          	auipc	a5,0x0
    80000234:	0b478793          	addi	a5,a5,180 # 800002e4 <rec>
    80000238:	0007a783          	lw	a5,0(a5)
    8000023c:	00442503          	lw	a0,4(s0)
    80000240:	40f50533          	sub	a0,a0,a5
    80000244:	00153513          	seqz	a0,a0
    80000248:	f91ff0ef          	jal	ra,800001d8 <check>
    8000024c:	00000797          	auipc	a5,0x0
    80000250:	09478793          	addi	a5,a5,148 # 800002e0 <lvl>
    80000254:	0007a783          	lw	a5,0(a5)
    80000258:	00842503          	lw	a0,8(s0)
    8000025c:	40f50533          	sub	a0,a0,a5
    80000260:	00153513          	seqz	a0,a0
    80000264:	f75ff0ef          	jal	ra,800001d8 <check>
    80000268:	00813083          	ld	ra,8(sp)
    8000026c:	00013403          	ld	s0,0(sp)
    80000270:	00000513          	li	a0,0
    80000274:	01010113          	addi	sp,sp,16
    80000278:	00008067          	ret

000000008000027c <halt>:
    8000027c:	00050513          	mv	a0,a0
    80000280:	00100073          	ebreak
    80000284:	0000006f          	j	80000284 <halt+0x8>

0000000080000288 <_trm_init>:
    80000288:	ff010113          	addi	sp,sp,-16
    8000028c:	00000517          	auipc	a0,0x0
    80000290:	01c50513          	addi	a0,a0,28 # 800002a8 <_etext>
    80000294:	00113423          	sd	ra,8(sp)
    80000298:	f59ff0ef          	jal	ra,800001f0 <main>
    8000029c:	00050513          	mv	a0,a0
    800002a0:	00100073          	ebreak
    800002a4:	0000006f          	j	800002a4 <_trm_init+0x1c>
