
/home/guodl/Desktop/ysyx/ysyx-workbench/ics2022/am-kernels/tests/cpu-tests/build/select-sort-riscv64-nemu.elf:     file format elf64-littleriscv


Disassembly of section .text:

0000000080000000 <_start>:
    80000000:	00000413          	li	s0,0
    80000004:	00009117          	auipc	sp,0x9
    80000008:	ffc10113          	addi	sp,sp,-4 # 80009000 <_end>
    8000000c:	19c000ef          	jal	ra,800001a8 <_trm_init>

0000000080000010 <check>:
    80000010:	00050463          	beqz	a0,80000018 <check+0x8>
    80000014:	00008067          	ret
    80000018:	ff010113          	addi	sp,sp,-16
    8000001c:	00100513          	li	a0,1
    80000020:	00113423          	sd	ra,8(sp)
    80000024:	178000ef          	jal	ra,8000019c <halt>

0000000080000028 <main>:
    80000028:	fc010113          	addi	sp,sp,-64
    8000002c:	02913423          	sd	s1,40(sp)
    80000030:	00000497          	auipc	s1,0x0
    80000034:	1a448493          	addi	s1,s1,420 # 800001d4 <a+0x4>
    80000038:	02813823          	sd	s0,48(sp)
    8000003c:	02113c23          	sd	ra,56(sp)
    80000040:	03213023          	sd	s2,32(sp)
    80000044:	01313c23          	sd	s3,24(sp)
    80000048:	01413823          	sd	s4,16(sp)
    8000004c:	01513423          	sd	s5,8(sp)
    80000050:	00048813          	mv	a6,s1
    80000054:	00000613          	li	a2,0
    80000058:	00000417          	auipc	s0,0x0
    8000005c:	17840413          	addi	s0,s0,376 # 800001d0 <a>
    80000060:	01400513          	li	a0,20
    80000064:	01300e13          	li	t3,19
    80000068:	ffc82303          	lw	t1,-4(a6)
    8000006c:	0016089b          	addiw	a7,a2,1
    80000070:	00080713          	mv	a4,a6
    80000074:	00030593          	mv	a1,t1
    80000078:	00088793          	mv	a5,a7
    8000007c:	00072683          	lw	a3,0(a4)
    80000080:	00470713          	addi	a4,a4,4
    80000084:	00b6d663          	ble	a1,a3,80000090 <main+0x68>
    80000088:	00078613          	mv	a2,a5
    8000008c:	00068593          	mv	a1,a3
    80000090:	0017879b          	addiw	a5,a5,1
    80000094:	fea794e3          	bne	a5,a0,8000007c <main+0x54>
    80000098:	00261613          	slli	a2,a2,0x2
    8000009c:	feb82e23          	sw	a1,-4(a6)
    800000a0:	00c40633          	add	a2,s0,a2
    800000a4:	00662023          	sw	t1,0(a2)
    800000a8:	00480813          	addi	a6,a6,4
    800000ac:	00088613          	mv	a2,a7
    800000b0:	fbc89ce3          	bne	a7,t3,80000068 <main+0x40>
    800000b4:	00000417          	auipc	s0,0x0
    800000b8:	11c40413          	addi	s0,s0,284 # 800001d0 <a>
    800000bc:	00040913          	mv	s2,s0
    800000c0:	00040a13          	mv	s4,s0
    800000c4:	00000993          	li	s3,0
    800000c8:	01400a93          	li	s5,20
    800000cc:	000a2503          	lw	a0,0(s4)
    800000d0:	004a0a13          	addi	s4,s4,4
    800000d4:	41350533          	sub	a0,a0,s3
    800000d8:	00153513          	seqz	a0,a0
    800000dc:	0019899b          	addiw	s3,s3,1
    800000e0:	f31ff0ef          	jal	ra,80000010 <check>
    800000e4:	ff5994e3          	bne	s3,s5,800000cc <main+0xa4>
    800000e8:	00100513          	li	a0,1
    800000ec:	f25ff0ef          	jal	ra,80000010 <check>
    800000f0:	00000613          	li	a2,0
    800000f4:	01400513          	li	a0,20
    800000f8:	01300313          	li	t1,19
    800000fc:	ffc4a883          	lw	a7,-4(s1)
    80000100:	0016081b          	addiw	a6,a2,1
    80000104:	00048713          	mv	a4,s1
    80000108:	00088593          	mv	a1,a7
    8000010c:	00080793          	mv	a5,a6
    80000110:	00072683          	lw	a3,0(a4)
    80000114:	00470713          	addi	a4,a4,4
    80000118:	00b6d663          	ble	a1,a3,80000124 <main+0xfc>
    8000011c:	00078613          	mv	a2,a5
    80000120:	00068593          	mv	a1,a3
    80000124:	0017879b          	addiw	a5,a5,1
    80000128:	fea794e3          	bne	a5,a0,80000110 <main+0xe8>
    8000012c:	00261613          	slli	a2,a2,0x2
    80000130:	feb4ae23          	sw	a1,-4(s1)
    80000134:	00c40633          	add	a2,s0,a2
    80000138:	01162023          	sw	a7,0(a2)
    8000013c:	00448493          	addi	s1,s1,4
    80000140:	00080613          	mv	a2,a6
    80000144:	fa681ce3          	bne	a6,t1,800000fc <main+0xd4>
    80000148:	00000413          	li	s0,0
    8000014c:	01400493          	li	s1,20
    80000150:	00092503          	lw	a0,0(s2)
    80000154:	00490913          	addi	s2,s2,4
    80000158:	40850533          	sub	a0,a0,s0
    8000015c:	00153513          	seqz	a0,a0
    80000160:	0014041b          	addiw	s0,s0,1
    80000164:	eadff0ef          	jal	ra,80000010 <check>
    80000168:	fe9414e3          	bne	s0,s1,80000150 <main+0x128>
    8000016c:	00100513          	li	a0,1
    80000170:	ea1ff0ef          	jal	ra,80000010 <check>
    80000174:	03813083          	ld	ra,56(sp)
    80000178:	03013403          	ld	s0,48(sp)
    8000017c:	02813483          	ld	s1,40(sp)
    80000180:	02013903          	ld	s2,32(sp)
    80000184:	01813983          	ld	s3,24(sp)
    80000188:	01013a03          	ld	s4,16(sp)
    8000018c:	00813a83          	ld	s5,8(sp)
    80000190:	00000513          	li	a0,0
    80000194:	04010113          	addi	sp,sp,64
    80000198:	00008067          	ret

000000008000019c <halt>:
    8000019c:	00050513          	mv	a0,a0
    800001a0:	00100073          	ebreak
    800001a4:	0000006f          	j	800001a4 <halt+0x8>

00000000800001a8 <_trm_init>:
    800001a8:	ff010113          	addi	sp,sp,-16
    800001ac:	00000517          	auipc	a0,0x0
    800001b0:	01c50513          	addi	a0,a0,28 # 800001c8 <_etext>
    800001b4:	00113423          	sd	ra,8(sp)
    800001b8:	e71ff0ef          	jal	ra,80000028 <main>
    800001bc:	00050513          	mv	a0,a0
    800001c0:	00100073          	ebreak
    800001c4:	0000006f          	j	800001c4 <_trm_init+0x1c>
