
/home/guodl/Desktop/ysyx/ysyx-workbench/ics2022/am-kernels/tests/cpu-tests/build/string-riscv64-nemu.elf:     file format elf64-littleriscv


Disassembly of section .text:

0000000080000000 <_start>:
    80000000:	00000413          	li	s0,0
    80000004:	00009117          	auipc	sp,0x9
    80000008:	ffc10113          	addi	sp,sp,-4 # 80009000 <_end>
    8000000c:	140000ef          	jal	ra,8000014c <_trm_init>

0000000080000010 <check>:
    80000010:	00050463          	beqz	a0,80000018 <check+0x8>
    80000014:	00008067          	ret
    80000018:	ff010113          	addi	sp,sp,-16
    8000001c:	00100513          	li	a0,1
    80000020:	00113423          	sd	ra,8(sp)
    80000024:	11c000ef          	jal	ra,80000140 <halt>

0000000080000028 <main>:
    80000028:	ff010113          	addi	sp,sp,-16
    8000002c:	00813023          	sd	s0,0(sp)
    80000030:	00000417          	auipc	s0,0x0
    80000034:	5f840413          	addi	s0,s0,1528 # 80000628 <s>
    80000038:	01043583          	ld	a1,16(s0)
    8000003c:	00043503          	ld	a0,0(s0)
    80000040:	00113423          	sd	ra,8(sp)
    80000044:	1a0000ef          	jal	ra,800001e4 <strcmp>
    80000048:	00153513          	seqz	a0,a0
    8000004c:	fc5ff0ef          	jal	ra,80000010 <check>
    80000050:	00843583          	ld	a1,8(s0)
    80000054:	00043503          	ld	a0,0(s0)
    80000058:	18c000ef          	jal	ra,800001e4 <strcmp>
    8000005c:	01f5551b          	srliw	a0,a0,0x1f
    80000060:	00157513          	andi	a0,a0,1
    80000064:	fadff0ef          	jal	ra,80000010 <check>
    80000068:	00843583          	ld	a1,8(s0)
    8000006c:	00043503          	ld	a0,0(s0)
    80000070:	00158593          	addi	a1,a1,1
    80000074:	00150513          	addi	a0,a0,1
    80000078:	16c000ef          	jal	ra,800001e4 <strcmp>
    8000007c:	01f5551b          	srliw	a0,a0,0x1f
    80000080:	00157513          	andi	a0,a0,1
    80000084:	f8dff0ef          	jal	ra,80000010 <check>
    80000088:	00843583          	ld	a1,8(s0)
    8000008c:	00043503          	ld	a0,0(s0)
    80000090:	00258593          	addi	a1,a1,2
    80000094:	00250513          	addi	a0,a0,2
    80000098:	14c000ef          	jal	ra,800001e4 <strcmp>
    8000009c:	01f5551b          	srliw	a0,a0,0x1f
    800000a0:	00157513          	andi	a0,a0,1
    800000a4:	f6dff0ef          	jal	ra,80000010 <check>
    800000a8:	00843583          	ld	a1,8(s0)
    800000ac:	00043503          	ld	a0,0(s0)
    800000b0:	00358593          	addi	a1,a1,3
    800000b4:	00350513          	addi	a0,a0,3
    800000b8:	12c000ef          	jal	ra,800001e4 <strcmp>
    800000bc:	01f5551b          	srliw	a0,a0,0x1f
    800000c0:	00157513          	andi	a0,a0,1
    800000c4:	f4dff0ef          	jal	ra,80000010 <check>
    800000c8:	00000597          	auipc	a1,0x0
    800000cc:	59058593          	addi	a1,a1,1424 # 80000658 <str1>
    800000d0:	00000517          	auipc	a0,0x0
    800000d4:	59050513          	addi	a0,a0,1424 # 80000660 <str>
    800000d8:	094000ef          	jal	ra,8000016c <strcpy>
    800000dc:	01843583          	ld	a1,24(s0)
    800000e0:	0b8000ef          	jal	ra,80000198 <strcat>
    800000e4:	02043583          	ld	a1,32(s0)
    800000e8:	0fc000ef          	jal	ra,800001e4 <strcmp>
    800000ec:	00153513          	seqz	a0,a0
    800000f0:	f21ff0ef          	jal	ra,80000010 <check>
    800000f4:	00500613          	li	a2,5
    800000f8:	02300593          	li	a1,35
    800000fc:	00000517          	auipc	a0,0x0
    80000100:	56450513          	addi	a0,a0,1380 # 80000660 <str>
    80000104:	124000ef          	jal	ra,80000228 <memset>
    80000108:	02843583          	ld	a1,40(s0)
    8000010c:	00500613          	li	a2,5
    80000110:	13c000ef          	jal	ra,8000024c <memcmp>
    80000114:	00153513          	seqz	a0,a0
    80000118:	ef9ff0ef          	jal	ra,80000010 <check>
    8000011c:	00813083          	ld	ra,8(sp)
    80000120:	00013403          	ld	s0,0(sp)
    80000124:	00000513          	li	a0,0
    80000128:	01010113          	addi	sp,sp,16
    8000012c:	00008067          	ret

0000000080000130 <putch>:
    80000130:	00500793          	li	a5,5
    80000134:	01d79793          	slli	a5,a5,0x1d
    80000138:	3ea78c23          	sb	a0,1016(a5)
    8000013c:	00008067          	ret

0000000080000140 <halt>:
    80000140:	00050513          	mv	a0,a0
    80000144:	00100073          	ebreak
    80000148:	0000006f          	j	80000148 <halt+0x8>

000000008000014c <_trm_init>:
    8000014c:	ff010113          	addi	sp,sp,-16
    80000150:	00000517          	auipc	a0,0x0
    80000154:	4d050513          	addi	a0,a0,1232 # 80000620 <mainargs>
    80000158:	00113423          	sd	ra,8(sp)
    8000015c:	ecdff0ef          	jal	ra,80000028 <main>
    80000160:	00050513          	mv	a0,a0
    80000164:	00100073          	ebreak
    80000168:	0000006f          	j	80000168 <_trm_init+0x1c>

000000008000016c <strcpy>:
    8000016c:	02050463          	beqz	a0,80000194 <strcpy+0x28>
    80000170:	02058063          	beqz	a1,80000190 <strcpy+0x24>
    80000174:	00050793          	mv	a5,a0
    80000178:	00158593          	addi	a1,a1,1
    8000017c:	fff5c703          	lbu	a4,-1(a1)
    80000180:	00178793          	addi	a5,a5,1
    80000184:	fee78fa3          	sb	a4,-1(a5)
    80000188:	fe0718e3          	bnez	a4,80000178 <strcpy+0xc>
    8000018c:	00008067          	ret
    80000190:	00000513          	li	a0,0
    80000194:	00008067          	ret

0000000080000198 <strcat>:
    80000198:	00054783          	lbu	a5,0(a0)
    8000019c:	02078663          	beqz	a5,800001c8 <strcat+0x30>
    800001a0:	00050793          	mv	a5,a0
    800001a4:	00178793          	addi	a5,a5,1
    800001a8:	0007c703          	lbu	a4,0(a5)
    800001ac:	fe071ce3          	bnez	a4,800001a4 <strcat+0xc>
    800001b0:	00158593          	addi	a1,a1,1
    800001b4:	fff5c703          	lbu	a4,-1(a1)
    800001b8:	00178793          	addi	a5,a5,1
    800001bc:	fee78fa3          	sb	a4,-1(a5)
    800001c0:	fe0718e3          	bnez	a4,800001b0 <strcat+0x18>
    800001c4:	00008067          	ret
    800001c8:	00158593          	addi	a1,a1,1
    800001cc:	fff5c703          	lbu	a4,-1(a1)
    800001d0:	00050793          	mv	a5,a0
    800001d4:	00178793          	addi	a5,a5,1
    800001d8:	fee78fa3          	sb	a4,-1(a5)
    800001dc:	fc071ae3          	bnez	a4,800001b0 <strcat+0x18>
    800001e0:	fe5ff06f          	j	800001c4 <strcat+0x2c>

00000000800001e4 <strcmp>:
    800001e4:	00054703          	lbu	a4,0(a0)
    800001e8:	0005c783          	lbu	a5,0(a1)
    800001ec:	40f707bb          	subw	a5,a4,a5
    800001f0:	02079063          	bnez	a5,80000210 <strcmp+0x2c>
    800001f4:	02070263          	beqz	a4,80000218 <strcmp+0x34>
    800001f8:	00150513          	addi	a0,a0,1
    800001fc:	00158593          	addi	a1,a1,1
    80000200:	00054703          	lbu	a4,0(a0)
    80000204:	0005c783          	lbu	a5,0(a1)
    80000208:	40f707bb          	subw	a5,a4,a5
    8000020c:	fe0784e3          	beqz	a5,800001f4 <strcmp+0x10>
    80000210:	0007c863          	bltz	a5,80000220 <strcmp+0x3c>
    80000214:	00f037b3          	snez	a5,a5
    80000218:	00078513          	mv	a0,a5
    8000021c:	00008067          	ret
    80000220:	fff00793          	li	a5,-1
    80000224:	ff5ff06f          	j	80000218 <strcmp+0x34>

0000000080000228 <memset>:
    80000228:	02050063          	beqz	a0,80000248 <memset+0x20>
    8000022c:	00060e63          	beqz	a2,80000248 <memset+0x20>
    80000230:	0ff5f593          	andi	a1,a1,255
    80000234:	00c50633          	add	a2,a0,a2
    80000238:	00050793          	mv	a5,a0
    8000023c:	00178793          	addi	a5,a5,1
    80000240:	feb78fa3          	sb	a1,-1(a5)
    80000244:	fef61ce3          	bne	a2,a5,8000023c <memset+0x14>
    80000248:	00008067          	ret

000000008000024c <memcmp>:
    8000024c:	06050863          	beqz	a0,800002bc <memcmp+0x70>
    80000250:	06058663          	beqz	a1,800002bc <memcmp+0x70>
    80000254:	06060463          	beqz	a2,800002bc <memcmp+0x70>
    80000258:	00054783          	lbu	a5,0(a0)
    8000025c:	0005c703          	lbu	a4,0(a1)
    80000260:	02e79663          	bne	a5,a4,8000028c <memcmp+0x40>
    80000264:	fff60613          	addi	a2,a2,-1
    80000268:	00061863          	bnez	a2,80000278 <memcmp+0x2c>
    8000026c:	0200006f          	j	8000028c <memcmp+0x40>
    80000270:	fff60613          	addi	a2,a2,-1
    80000274:	02060a63          	beqz	a2,800002a8 <memcmp+0x5c>
    80000278:	00150513          	addi	a0,a0,1
    8000027c:	00158593          	addi	a1,a1,1
    80000280:	00054783          	lbu	a5,0(a0)
    80000284:	0005c703          	lbu	a4,0(a1)
    80000288:	fee784e3          	beq	a5,a4,80000270 <memcmp+0x24>
    8000028c:	40e787bb          	subw	a5,a5,a4
    80000290:	00100513          	li	a0,1
    80000294:	00f05463          	blez	a5,8000029c <memcmp+0x50>
    80000298:	00008067          	ret
    8000029c:	00f037b3          	snez	a5,a5
    800002a0:	40f0053b          	negw	a0,a5
    800002a4:	00008067          	ret
    800002a8:	00078713          	mv	a4,a5
    800002ac:	40e787bb          	subw	a5,a5,a4
    800002b0:	00100513          	li	a0,1
    800002b4:	fef042e3          	bgtz	a5,80000298 <memcmp+0x4c>
    800002b8:	fe5ff06f          	j	8000029c <memcmp+0x50>
    800002bc:	ff010113          	addi	sp,sp,-16
    800002c0:	08200613          	li	a2,130
    800002c4:	00000597          	auipc	a1,0x0
    800002c8:	2e458593          	addi	a1,a1,740 # 800005a8 <_etext+0x78>
    800002cc:	00000517          	auipc	a0,0x0
    800002d0:	33450513          	addi	a0,a0,820 # 80000600 <_etext+0xd0>
    800002d4:	00113423          	sd	ra,8(sp)
    800002d8:	0e0000ef          	jal	ra,800003b8 <printf>
    800002dc:	00100513          	li	a0,1
    800002e0:	e61ff0ef          	jal	ra,80000140 <halt>

00000000800002e4 <printint>:
    800002e4:	00051463          	bnez	a0,800002ec <printint+0x8>
    800002e8:	00008067          	ret
    800002ec:	fe010113          	addi	sp,sp,-32
    800002f0:	00913423          	sd	s1,8(sp)
    800002f4:	00a00493          	li	s1,10
    800002f8:	00813823          	sd	s0,16(sp)
    800002fc:	00050413          	mv	s0,a0
    80000300:	0295453b          	divw	a0,a0,s1
    80000304:	00113c23          	sd	ra,24(sp)
    80000308:	fddff0ef          	jal	ra,800002e4 <printint>
    8000030c:	0294653b          	remw	a0,s0,s1
    80000310:	01013403          	ld	s0,16(sp)
    80000314:	01813083          	ld	ra,24(sp)
    80000318:	00813483          	ld	s1,8(sp)
    8000031c:	02010113          	addi	sp,sp,32
    80000320:	0305051b          	addiw	a0,a0,48
    80000324:	0ff57513          	andi	a0,a0,255
    80000328:	e09ff06f          	j	80000130 <putch>

000000008000032c <printhex>:
    8000032c:	fe010113          	addi	sp,sp,-32
    80000330:	00913423          	sd	s1,8(sp)
    80000334:	00113c23          	sd	ra,24(sp)
    80000338:	00813823          	sd	s0,16(sp)
    8000033c:	0005049b          	sext.w	s1,a0
    80000340:	04048063          	beqz	s1,80000380 <printhex+0x54>
    80000344:	00050413          	mv	s0,a0
    80000348:	0044d51b          	srliw	a0,s1,0x4
    8000034c:	0005051b          	sext.w	a0,a0
    80000350:	00100593          	li	a1,1
    80000354:	fd9ff0ef          	jal	ra,8000032c <printhex>
    80000358:	00f4f493          	andi	s1,s1,15
    8000035c:	00900793          	li	a5,9
    80000360:	00f47513          	andi	a0,s0,15
    80000364:	0297fe63          	bleu	s1,a5,800003a0 <printhex+0x74>
    80000368:	05750513          	addi	a0,a0,87
    8000036c:	01013403          	ld	s0,16(sp)
    80000370:	01813083          	ld	ra,24(sp)
    80000374:	00813483          	ld	s1,8(sp)
    80000378:	02010113          	addi	sp,sp,32
    8000037c:	db5ff06f          	j	80000130 <putch>
    80000380:	00100793          	li	a5,1
    80000384:	03000513          	li	a0,48
    80000388:	fef592e3          	bne	a1,a5,8000036c <printhex+0x40>
    8000038c:	01813083          	ld	ra,24(sp)
    80000390:	01013403          	ld	s0,16(sp)
    80000394:	00813483          	ld	s1,8(sp)
    80000398:	02010113          	addi	sp,sp,32
    8000039c:	00008067          	ret
    800003a0:	01013403          	ld	s0,16(sp)
    800003a4:	01813083          	ld	ra,24(sp)
    800003a8:	00813483          	ld	s1,8(sp)
    800003ac:	03050513          	addi	a0,a0,48
    800003b0:	02010113          	addi	sp,sp,32
    800003b4:	d7dff06f          	j	80000130 <putch>

00000000800003b8 <printf>:
    800003b8:	f6010113          	addi	sp,sp,-160
    800003bc:	08f13423          	sd	a5,136(sp)
    800003c0:	06810793          	addi	a5,sp,104
    800003c4:	04813823          	sd	s0,80(sp)
    800003c8:	05213023          	sd	s2,64(sp)
    800003cc:	03313c23          	sd	s3,56(sp)
    800003d0:	03413823          	sd	s4,48(sp)
    800003d4:	03513423          	sd	s5,40(sp)
    800003d8:	03613023          	sd	s6,32(sp)
    800003dc:	01713c23          	sd	s7,24(sp)
    800003e0:	04113c23          	sd	ra,88(sp)
    800003e4:	04913423          	sd	s1,72(sp)
    800003e8:	00050413          	mv	s0,a0
    800003ec:	06b13423          	sd	a1,104(sp)
    800003f0:	06c13823          	sd	a2,112(sp)
    800003f4:	06d13c23          	sd	a3,120(sp)
    800003f8:	08e13023          	sd	a4,128(sp)
    800003fc:	09013823          	sd	a6,144(sp)
    80000400:	09113c23          	sd	a7,152(sp)
    80000404:	00f13423          	sd	a5,8(sp)
    80000408:	02500913          	li	s2,37
    8000040c:	06400993          	li	s3,100
    80000410:	00a00b93          	li	s7,10
    80000414:	07300a13          	li	s4,115
    80000418:	07800b13          	li	s6,120
    8000041c:	06300a93          	li	s5,99
    80000420:	00044503          	lbu	a0,0(s0)
    80000424:	00050c63          	beqz	a0,8000043c <printf+0x84>
    80000428:	05250263          	beq	a0,s2,8000046c <printf+0xb4>
    8000042c:	d05ff0ef          	jal	ra,80000130 <putch>
    80000430:	00140413          	addi	s0,s0,1
    80000434:	00044503          	lbu	a0,0(s0)
    80000438:	fe0518e3          	bnez	a0,80000428 <printf+0x70>
    8000043c:	05813083          	ld	ra,88(sp)
    80000440:	05013403          	ld	s0,80(sp)
    80000444:	04813483          	ld	s1,72(sp)
    80000448:	04013903          	ld	s2,64(sp)
    8000044c:	03813983          	ld	s3,56(sp)
    80000450:	03013a03          	ld	s4,48(sp)
    80000454:	02813a83          	ld	s5,40(sp)
    80000458:	02013b03          	ld	s6,32(sp)
    8000045c:	01813b83          	ld	s7,24(sp)
    80000460:	00100513          	li	a0,1
    80000464:	0a010113          	addi	sp,sp,160
    80000468:	00008067          	ret
    8000046c:	00144503          	lbu	a0,1(s0)
    80000470:	00240413          	addi	s0,s0,2
    80000474:	05350463          	beq	a0,s3,800004bc <printf+0x104>
    80000478:	02a9f463          	bleu	a0,s3,800004a0 <printf+0xe8>
    8000047c:	07450c63          	beq	a0,s4,800004f4 <printf+0x13c>
    80000480:	07651663          	bne	a0,s6,800004ec <printf+0x134>
    80000484:	00813783          	ld	a5,8(sp)
    80000488:	00000593          	li	a1,0
    8000048c:	0007a503          	lw	a0,0(a5)
    80000490:	00878793          	addi	a5,a5,8
    80000494:	00f13423          	sd	a5,8(sp)
    80000498:	e95ff0ef          	jal	ra,8000032c <printhex>
    8000049c:	f85ff06f          	j	80000420 <printf+0x68>
    800004a0:	05551663          	bne	a0,s5,800004ec <printf+0x134>
    800004a4:	00813783          	ld	a5,8(sp)
    800004a8:	0007c503          	lbu	a0,0(a5)
    800004ac:	00878793          	addi	a5,a5,8
    800004b0:	00f13423          	sd	a5,8(sp)
    800004b4:	c7dff0ef          	jal	ra,80000130 <putch>
    800004b8:	f69ff06f          	j	80000420 <printf+0x68>
    800004bc:	00813783          	ld	a5,8(sp)
    800004c0:	0007a483          	lw	s1,0(a5)
    800004c4:	00878793          	addi	a5,a5,8
    800004c8:	00f13423          	sd	a5,8(sp)
    800004cc:	f4048ae3          	beqz	s1,80000420 <printf+0x68>
    800004d0:	0374c53b          	divw	a0,s1,s7
    800004d4:	e11ff0ef          	jal	ra,800002e4 <printint>
    800004d8:	0374e53b          	remw	a0,s1,s7
    800004dc:	0305051b          	addiw	a0,a0,48
    800004e0:	0ff57513          	andi	a0,a0,255
    800004e4:	c4dff0ef          	jal	ra,80000130 <putch>
    800004e8:	f39ff06f          	j	80000420 <printf+0x68>
    800004ec:	c45ff0ef          	jal	ra,80000130 <putch>
    800004f0:	f31ff06f          	j	80000420 <printf+0x68>
    800004f4:	00813783          	ld	a5,8(sp)
    800004f8:	0007b483          	ld	s1,0(a5)
    800004fc:	00878793          	addi	a5,a5,8
    80000500:	00f13423          	sd	a5,8(sp)
    80000504:	0004c503          	lbu	a0,0(s1)
    80000508:	f0050ce3          	beqz	a0,80000420 <printf+0x68>
    8000050c:	00148493          	addi	s1,s1,1
    80000510:	c21ff0ef          	jal	ra,80000130 <putch>
    80000514:	0004c503          	lbu	a0,0(s1)
    80000518:	f00504e3          	beqz	a0,80000420 <printf+0x68>
    8000051c:	00148493          	addi	s1,s1,1
    80000520:	c11ff0ef          	jal	ra,80000130 <putch>
    80000524:	0004c503          	lbu	a0,0(s1)
    80000528:	fe0512e3          	bnez	a0,8000050c <printf+0x154>
    8000052c:	ef5ff06f          	j	80000420 <printf+0x68>
