
/home/guodl/Desktop/ysyx/ysyx-workbench/ics2022/am-kernels/tests/cpu-tests/build/switch-riscv64-nemu.elf:     file format elf64-littleriscv


Disassembly of section .text:

0000000080000000 <_start>:
    80000000:	00000413          	li	s0,0
    80000004:	00009117          	auipc	sp,0x9
    80000008:	ffc10113          	addi	sp,sp,-4 # 80009000 <_end>
    8000000c:	0e8000ef          	jal	ra,800000f4 <_trm_init>

0000000080000010 <check>:
    80000010:	00050463          	beqz	a0,80000018 <check+0x8>
    80000014:	00008067          	ret
    80000018:	ff010113          	addi	sp,sp,-16
    8000001c:	00100513          	li	a0,1
    80000020:	00113423          	sd	ra,8(sp)
    80000024:	0c4000ef          	jal	ra,800000e8 <halt>

0000000080000028 <main>:
    80000028:	fd010113          	addi	sp,sp,-48
    8000002c:	00913c23          	sd	s1,24(sp)
    80000030:	00000497          	auipc	s1,0x0
    80000034:	12848493          	addi	s1,s1,296 # 80000158 <ans>
    80000038:	0004a503          	lw	a0,0(s1)
    8000003c:	fff00793          	li	a5,-1
    80000040:	02813023          	sd	s0,32(sp)
    80000044:	40f50533          	sub	a0,a0,a5
    80000048:	00153513          	seqz	a0,a0
    8000004c:	01213823          	sd	s2,16(sp)
    80000050:	01313423          	sd	s3,8(sp)
    80000054:	01413023          	sd	s4,0(sp)
    80000058:	02113423          	sd	ra,40(sp)
    8000005c:	00000413          	li	s0,0
    80000060:	fb1ff0ef          	jal	ra,80000010 <check>
    80000064:	00e00913          	li	s2,14
    80000068:	00d00993          	li	s3,13
    8000006c:	00000a17          	auipc	s4,0x0
    80000070:	0aca0a13          	addi	s4,s4,172 # 80000118 <CSWTCH.2>
    80000074:	00448493          	addi	s1,s1,4
    80000078:	0004071b          	sext.w	a4,s0
    8000007c:	03240663          	beq	s0,s2,800000a8 <main+0x80>
    80000080:	fff00793          	li	a5,-1
    80000084:	05371863          	bne	a4,s3,800000d4 <main+0xac>
    80000088:	00140413          	addi	s0,s0,1
    8000008c:	0004a503          	lw	a0,0(s1)
    80000090:	00448493          	addi	s1,s1,4
    80000094:	40f50533          	sub	a0,a0,a5
    80000098:	00153513          	seqz	a0,a0
    8000009c:	f75ff0ef          	jal	ra,80000010 <check>
    800000a0:	0004071b          	sext.w	a4,s0
    800000a4:	fd241ee3          	bne	s0,s2,80000080 <main+0x58>
    800000a8:	00100513          	li	a0,1
    800000ac:	f65ff0ef          	jal	ra,80000010 <check>
    800000b0:	02813083          	ld	ra,40(sp)
    800000b4:	02013403          	ld	s0,32(sp)
    800000b8:	01813483          	ld	s1,24(sp)
    800000bc:	01013903          	ld	s2,16(sp)
    800000c0:	00813983          	ld	s3,8(sp)
    800000c4:	00013a03          	ld	s4,0(sp)
    800000c8:	00000513          	li	a0,0
    800000cc:	03010113          	addi	sp,sp,48
    800000d0:	00008067          	ret
    800000d4:	00241793          	slli	a5,s0,0x2
    800000d8:	00fa07b3          	add	a5,s4,a5
    800000dc:	0007a783          	lw	a5,0(a5)
    800000e0:	00140413          	addi	s0,s0,1
    800000e4:	fa9ff06f          	j	8000008c <main+0x64>

00000000800000e8 <halt>:
    800000e8:	00050513          	mv	a0,a0
    800000ec:	00100073          	ebreak
    800000f0:	0000006f          	j	800000f0 <halt+0x8>

00000000800000f4 <_trm_init>:
    800000f4:	ff010113          	addi	sp,sp,-16
    800000f8:	00000517          	auipc	a0,0x0
    800000fc:	05850513          	addi	a0,a0,88 # 80000150 <mainargs>
    80000100:	00113423          	sd	ra,8(sp)
    80000104:	f25ff0ef          	jal	ra,80000028 <main>
    80000108:	00050513          	mv	a0,a0
    8000010c:	00100073          	ebreak
    80000110:	0000006f          	j	80000110 <_trm_init+0x1c>
