
/home/guodl/Desktop/ysyx/ysyx-workbench/ics2022/am-kernels/tests/cpu-tests/build/to-lower-case-riscv64-nemu.elf:     file format elf64-littleriscv


Disassembly of section .text:

0000000080000000 <_start>:
    80000000:	00000413          	li	s0,0
    80000004:	00009117          	auipc	sp,0x9
    80000008:	ffc10113          	addi	sp,sp,-4 # 80009000 <_end>
    8000000c:	0c8000ef          	jal	ra,800000d4 <_trm_init>

0000000080000010 <check>:
    80000010:	00050463          	beqz	a0,80000018 <check+0x8>
    80000014:	00008067          	ret
    80000018:	ff010113          	addi	sp,sp,-16
    8000001c:	00100513          	li	a0,1
    80000020:	00113423          	sd	ra,8(sp)
    80000024:	0a4000ef          	jal	ra,800000c8 <halt>

0000000080000028 <main>:
    80000028:	fd010113          	addi	sp,sp,-48
    8000002c:	02813023          	sd	s0,32(sp)
    80000030:	00913c23          	sd	s1,24(sp)
    80000034:	01213823          	sd	s2,16(sp)
    80000038:	01313423          	sd	s3,8(sp)
    8000003c:	01413023          	sd	s4,0(sp)
    80000040:	02113423          	sd	ra,40(sp)
    80000044:	0c000493          	li	s1,192
    80000048:	00000413          	li	s0,0
    8000004c:	00000793          	li	a5,0
    80000050:	00000997          	auipc	s3,0x0
    80000054:	0b098993          	addi	s3,s3,176 # 80000100 <ans>
    80000058:	08000913          	li	s2,128
    8000005c:	01900a13          	li	s4,25
    80000060:	00898733          	add	a4,s3,s0
    80000064:	00074503          	lbu	a0,0(a4)
    80000068:	0014041b          	addiw	s0,s0,1
    8000006c:	0ff57513          	andi	a0,a0,255
    80000070:	40f50533          	sub	a0,a0,a5
    80000074:	00153513          	seqz	a0,a0
    80000078:	f99ff0ef          	jal	ra,80000010 <check>
    8000007c:	0014871b          	addiw	a4,s1,1
    80000080:	01240a63          	beq	s0,s2,80000094 <main+0x6c>
    80000084:	0ff47793          	andi	a5,s0,255
    80000088:	029a7863          	bleu	s1,s4,800000b8 <main+0x90>
    8000008c:	0ff77493          	andi	s1,a4,255
    80000090:	fd1ff06f          	j	80000060 <main+0x38>
    80000094:	02813083          	ld	ra,40(sp)
    80000098:	02013403          	ld	s0,32(sp)
    8000009c:	01813483          	ld	s1,24(sp)
    800000a0:	01013903          	ld	s2,16(sp)
    800000a4:	00813983          	ld	s3,8(sp)
    800000a8:	00013a03          	ld	s4,0(sp)
    800000ac:	00000513          	li	a0,0
    800000b0:	03010113          	addi	sp,sp,48
    800000b4:	00008067          	ret
    800000b8:	0207851b          	addiw	a0,a5,32
    800000bc:	0ff57793          	andi	a5,a0,255
    800000c0:	0ff77493          	andi	s1,a4,255
    800000c4:	f9dff06f          	j	80000060 <main+0x38>

00000000800000c8 <halt>:
    800000c8:	00050513          	mv	a0,a0
    800000cc:	00100073          	ebreak
    800000d0:	0000006f          	j	800000d0 <halt+0x8>

00000000800000d4 <_trm_init>:
    800000d4:	ff010113          	addi	sp,sp,-16
    800000d8:	00000517          	auipc	a0,0x0
    800000dc:	02050513          	addi	a0,a0,32 # 800000f8 <mainargs>
    800000e0:	00113423          	sd	ra,8(sp)
    800000e4:	f45ff0ef          	jal	ra,80000028 <main>
    800000e8:	00050513          	mv	a0,a0
    800000ec:	00100073          	ebreak
    800000f0:	0000006f          	j	800000f0 <_trm_init+0x1c>
